Certificate:
    Data:
        Version: 3 (0x2)
        Serial Number: 306714175 (0x1248163f)
        Signature Algorithm: ecdsa-with-SHA384
        Issuer: CN=CA1_sha384_secp384r1_v3_ca
        Validity
            Not Before: Mar  4 14:55:16 2025 GMT
            Not After : Feb 27 14:55:16 2045 GMT
        Subject: CN=SRK2_sha384_secp384r1_v3_usr
        Subject Public Key Info:
            Public Key Algorithm: id-ecPublicKey
                Public-Key: (384 bit)
                pub:
                    04:a7:82:6c:e2:7e:1b:c5:6a:86:dc:96:57:8c:64:
                    d2:ae:89:cd:49:fc:b1:df:bb:62:c6:3b:86:e0:60:
                    09:93:69:d3:12:c9:21:88:49:86:7d:6e:27:b7:d3:
                    71:d7:cf:15:87:56:fb:00:b7:0e:fe:12:ba:1e:29:
                    db:23:12:a9:69:99:39:5d:5e:d0:06:fb:0a:b5:4d:
                    bd:30:bf:84:b6:f4:8a:25:8e:b6:fd:e2:8c:17:fe:
                    92:9a:5d:48:85:0f:99
                ASN1 OID: secp384r1
                NIST CURVE: P-384
        X509v3 extensions:
            X509v3 Basic Constraints: 
                CA:FALSE
            Netscape Comment: 
                OpenSSL Generated Certificate
            X509v3 Subject Key Identifier: 
                60:A1:5E:03:0D:A9:D4:EF:E7:4E:2C:9C:35:38:81:95:94:81:76:3C
            X509v3 Authority Key Identifier: 
                1F:15:9B:EA:37:F4:8D:EB:60:F7:A5:9C:F0:23:A4:56:99:B0:06:27
    Signature Algorithm: ecdsa-with-SHA384
    Signature Value:
        30:64:02:30:4a:0b:9b:cb:69:d8:8f:e7:3f:30:92:b4:79:a7:
        72:88:35:10:f6:cd:ca:d0:31:67:2c:c1:fa:ba:dd:04:b9:53:
        a2:54:09:93:f2:ce:1e:c3:a3:32:9b:61:e1:ec:55:82:02:30:
        03:62:6a:74:26:a6:d7:02:70:b9:3a:05:93:2d:14:6e:40:96:
        63:68:25:46:2a:16:c2:22:15:47:0d:7f:47:5f:f9:57:a4:90:
        aa:5d:97:8e:1e:d3:96:8d:88:d3:fc:0e
-----BEGIN CERTIFICATE-----
MIIB9TCCAXygAwIBAgIEEkgWPzAKBggqhkjOPQQDAzAlMSMwIQYDVQQDFBpDQTFf
c2hhMzg0X3NlY3AzODRyMV92M19jYTAeFw0yNTAzMDQxNDU1MTZaFw00NTAyMjcx
NDU1MTZaMCcxJTAjBgNVBAMMHFNSSzJfc2hhMzg0X3NlY3AzODRyMV92M191c3Iw
djAQBgcqhkjOPQIBBgUrgQQAIgNiAASngmzifhvFaobclleMZNKuic1J/LHfu2LG
O4bgYAmTadMSySGISYZ9bie303HXzxWHVvsAtw7+EroeKdsjEqlpmTldXtAG+wq1
Tb0wv4S29Ioljrb94owX/pKaXUiFD5mjezB5MAkGA1UdEwQCMAAwLAYJYIZIAYb4
QgENBB8WHU9wZW5TU0wgR2VuZXJhdGVkIENlcnRpZmljYXRlMB0GA1UdDgQWBBRg
oV4DDanU7+dOLJw1OIGVlIF2PDAfBgNVHSMEGDAWgBQfFZvqN/SN62D3pZzwI6RW
mbAGJzAKBggqhkjOPQQDAwNnADBkAjBKC5vLadiP5z8wkrR5p3KINRD2zcrQMWcs
wfq63QS5U6JUCZPyzh7DozKbYeHsVYICMANianQmptcCcLk6BZMtFG5AlmNoJUYq
FsIiFUcNf0df+VekkKpdl44e05aNiNP8Dg==
-----END CERTIFICATE-----
