Certificate:
    Data:
        Version: 3 (0x2)
        Serial Number: 306714177 (0x12481641)
        Signature Algorithm: ecdsa-with-SHA384
        Issuer: CN=CA1_sha384_secp384r1_v3_ca
        Validity
            Not Before: Mar  4 14:55:16 2025 GMT
            Not After : Feb 27 14:55:16 2045 GMT
        Subject: CN=SRK4_sha384_secp384r1_v3_usr
        Subject Public Key Info:
            Public Key Algorithm: id-ecPublicKey
                Public-Key: (384 bit)
                pub:
                    04:98:a5:24:e5:6d:bd:94:d0:22:81:5a:c0:dd:47:
                    1d:ea:f3:59:7e:6b:a5:4f:96:72:8f:eb:d5:f2:0a:
                    76:ec:e8:8a:17:ea:85:e1:2f:d3:1b:18:bc:4d:2a:
                    5d:14:d9:15:aa:f1:27:2f:41:6d:db:6d:26:63:ce:
                    5a:4d:de:6a:96:a2:77:8e:4f:81:5a:b8:04:7f:09:
                    93:7d:30:f1:c0:a9:0e:58:c9:83:fb:5c:e3:5f:6c:
                    5d:5c:de:92:e9:1a:0c
                ASN1 OID: secp384r1
                NIST CURVE: P-384
        X509v3 extensions:
            X509v3 Basic Constraints: 
                CA:FALSE
            Netscape Comment: 
                OpenSSL Generated Certificate
            X509v3 Subject Key Identifier: 
                6A:AC:EE:88:B9:0B:53:D9:A0:6C:72:6B:2D:A9:67:5D:CC:C8:9B:83
            X509v3 Authority Key Identifier: 
                1F:15:9B:EA:37:F4:8D:EB:60:F7:A5:9C:F0:23:A4:56:99:B0:06:27
    Signature Algorithm: ecdsa-with-SHA384
    Signature Value:
        30:65:02:30:0b:43:ad:6e:6c:41:0e:88:29:cd:b2:d2:01:86:
        ea:ee:0b:d3:cb:51:1d:3f:ff:26:0c:78:eb:94:00:c9:28:a6:
        49:b8:99:af:22:c5:e9:e4:2c:93:46:e5:3a:33:49:60:02:31:
        00:81:0b:13:e6:4b:2f:5d:8c:5c:c8:45:8e:d7:0b:8d:9d:17:
        ff:e5:a5:de:83:67:44:90:3a:d0:02:b9:d5:6d:c7:42:13:87:
        7d:1b:ec:60:2a:d5:b8:50:91:a5:61:1c:67
-----BEGIN CERTIFICATE-----
MIIB9jCCAXygAwIBAgIEEkgWQTAKBggqhkjOPQQDAzAlMSMwIQYDVQQDFBpDQTFf
c2hhMzg0X3NlY3AzODRyMV92M19jYTAeFw0yNTAzMDQxNDU1MTZaFw00NTAyMjcx
NDU1MTZaMCcxJTAjBgNVBAMMHFNSSzRfc2hhMzg0X3NlY3AzODRyMV92M191c3Iw
djAQBgcqhkjOPQIBBgUrgQQAIgNiAASYpSTlbb2U0CKBWsDdRx3q81l+a6VPlnKP
69XyCnbs6IoX6oXhL9MbGLxNKl0U2RWq8ScvQW3bbSZjzlpN3mqWoneOT4FauAR/
CZN9MPHAqQ5YyYP7XONfbF1c3pLpGgyjezB5MAkGA1UdEwQCMAAwLAYJYIZIAYb4
QgENBB8WHU9wZW5TU0wgR2VuZXJhdGVkIENlcnRpZmljYXRlMB0GA1UdDgQWBBRq
rO6IuQtT2aBscmstqWddzMibgzAfBgNVHSMEGDAWgBQfFZvqN/SN62D3pZzwI6RW
mbAGJzAKBggqhkjOPQQDAwNoADBlAjALQ61ubEEOiCnNstIBhuruC9PLUR0//yYM
eOuUAMkopkm4ma8ixenkLJNG5TozSWACMQCBCxPmSy9djFzIRY7XC42dF//lpd6D
Z0SQOtACudVtx0ITh30b7GAq1bhQkaVhHGc=
-----END CERTIFICATE-----
