Certificate:
    Data:
        Version: 3 (0x2)
        Serial Number: 306714175 (0x1248163f)
        Signature Algorithm: sha384WithRSAEncryption
        Issuer: CN=CA1_sha384_4096_65537_v3_ca
        Validity
            Not Before: Sep 15 19:44:30 2021 GMT
            Not After : Sep 10 19:44:30 2041 GMT
        Subject: CN=SRK2_sha384_4096_65537_v3_usr
        Subject Public Key Info:
            Public Key Algorithm: rsaEncryption
                RSA Public-Key: (4096 bit)
                Modulus:
                    00:c6:f3:32:74:c4:30:33:f5:4a:a4:8c:4c:b4:6a:
                    71:49:5a:59:88:ac:f2:40:9f:9b:ef:54:6d:1b:6c:
                    ad:8e:f5:83:71:d3:32:8b:e0:ca:24:dc:d5:6a:72:
                    9a:53:ca:a9:49:10:10:f6:81:64:6e:2f:30:da:b8:
                    5f:2b:a9:35:79:7d:b1:7e:57:e4:2f:e1:7d:2d:0d:
                    f9:9b:e7:0e:a4:e3:c7:cf:01:c5:0d:c6:45:87:d8:
                    e4:d7:9b:78:61:0e:8c:fe:56:1f:eb:68:06:c3:b0:
                    03:0e:de:f6:5a:65:59:5f:ab:1f:60:41:3e:10:29:
                    ca:9e:c6:2b:da:78:51:ce:9a:68:6c:4b:b8:71:d0:
                    7d:ce:ef:c8:c7:29:3a:f6:97:fe:4f:63:ad:02:ee:
                    6d:68:df:94:8e:f0:a2:ba:80:f9:86:a3:c2:ef:92:
                    33:34:e0:7b:bd:50:95:7d:83:35:8b:46:d1:0b:75:
                    15:9f:c8:d3:12:5a:e5:cc:08:2b:2b:f1:1a:87:c5:
                    c7:bb:b5:12:6d:bc:16:cf:cf:96:6e:c3:cc:f5:34:
                    76:31:fa:3a:03:90:52:6d:1a:28:db:cb:8e:48:9a:
                    7c:e8:9d:41:0b:5a:44:c1:ed:e8:bd:66:58:4d:c8:
                    26:0c:92:ed:07:3f:92:e9:30:fa:ff:aa:1e:b5:03:
                    85:e0:c0:06:ee:f0:a2:2f:67:9f:aa:30:17:0c:16:
                    cb:7e:44:da:91:6d:74:8a:49:47:85:57:de:fd:9d:
                    e4:14:ea:8b:73:74:0b:55:91:f6:d9:1e:85:09:a6:
                    dc:a7:dc:db:36:f7:d1:9d:88:b7:59:0f:cb:7b:a2:
                    ba:1d:cd:61:f6:18:43:cd:b2:78:4f:7a:e1:69:57:
                    bf:d9:d0:47:22:0e:47:18:30:69:48:f1:dc:0c:bf:
                    43:8a:6c:1a:da:99:f2:2b:c3:43:af:ce:08:16:e8:
                    03:bc:5a:ca:e1:d4:d4:80:59:73:06:0e:60:31:b7:
                    63:15:f4:4b:40:f8:a1:5c:29:99:ce:55:ae:16:92:
                    54:29:76:36:25:fc:6e:90:51:83:fa:60:4b:ca:cb:
                    c7:7d:4f:fb:33:d6:65:dd:d0:af:54:62:00:20:92:
                    71:19:ce:87:30:6e:a8:1a:22:89:48:50:39:9b:9f:
                    ec:ca:3f:61:ec:13:3c:0d:0d:46:c6:f6:fd:93:27:
                    1a:b7:9b:8a:43:fd:bc:bb:43:3e:46:56:21:70:00:
                    31:f9:55:16:cd:d0:6a:b2:1c:28:27:7a:e8:37:e3:
                    6b:c7:02:a4:73:48:d9:4d:e8:0c:d2:74:2c:c0:68:
                    af:78:17:d4:bf:ee:90:aa:76:dc:11:47:8f:a6:d8:
                    dc:fd:17
                Exponent: 65537 (0x10001)
        X509v3 extensions:
            X509v3 Basic Constraints: 
                CA:FALSE
            Netscape Comment: 
                OpenSSL Generated Certificate
            X509v3 Subject Key Identifier: 
                4A:8E:B4:9F:69:1C:C4:06:17:C1:8C:EA:D6:29:26:A4:A1:3E:A9:D6
            X509v3 Authority Key Identifier: 
                keyid:F3:C6:83:DE:BB:A2:F6:E0:00:19:F7:93:A8:3F:2E:8D:69:BB:6B:1B

    Signature Algorithm: sha384WithRSAEncryption
         b5:4f:29:37:98:71:a8:2a:b1:85:66:db:03:8e:6a:46:90:66:
         ea:26:a2:2d:67:ce:88:9d:bf:5c:32:0b:45:91:c8:b3:77:f9:
         bd:26:34:c9:d3:4e:b8:6a:09:87:74:89:ad:c5:80:65:04:5b:
         1e:b9:89:0a:70:6b:48:30:3f:12:54:f0:77:c7:2f:6f:92:04:
         ce:08:44:f4:36:ce:4a:00:11:01:14:8e:aa:f3:7b:30:79:c9:
         fd:d0:41:e0:83:25:4a:89:7f:d4:72:4d:a4:b2:e2:24:75:2e:
         8f:96:ef:1c:c9:62:13:11:03:2d:a6:5d:e2:1b:62:d9:e9:a4:
         77:62:a2:e8:0e:ff:a7:82:02:7e:a2:7f:94:fe:ea:d9:65:c4:
         86:95:84:7d:66:e8:7f:5a:cf:3c:ca:ee:fe:69:c3:6a:fb:03:
         92:d5:21:86:13:88:98:ab:7e:8d:7f:28:61:9a:36:b3:74:87:
         37:4d:1b:f8:84:05:77:fd:84:a9:c4:9f:ee:a6:8b:d9:9e:74:
         73:0b:97:78:32:c9:a9:28:e0:02:46:75:d2:78:5e:f6:f8:55:
         6a:fb:76:5f:87:4d:0f:f2:3c:2d:b3:b4:34:41:90:19:50:8a:
         4c:78:79:d1:7e:cb:5c:72:de:52:d2:c6:23:84:40:40:c4:bc:
         59:e5:81:98:a4:01:83:e1:34:c9:8c:a4:30:76:cd:25:0e:24:
         a6:3f:0e:81:ba:7a:3d:6c:1c:61:9a:c3:23:da:ea:f9:ed:9b:
         93:0a:05:a4:0e:c2:42:ff:83:50:b1:db:f4:ac:fb:d4:c7:f1:
         d5:10:5c:d1:b5:51:fd:c3:33:d7:bf:2e:57:be:fe:e8:9c:91:
         1a:a4:16:f4:fe:cf:21:d8:9c:e0:6c:74:14:82:f7:1a:c1:14:
         33:35:72:bd:74:c7:00:9b:8e:fa:cb:ee:e2:a8:57:9e:58:c4:
         80:ab:e2:88:41:6b:8c:64:da:fb:37:78:cd:4d:df:51:1a:02:
         eb:c7:05:5e:65:22:43:15:d1:c7:57:db:ad:87:6d:16:4e:47:
         d9:79:a2:a0:29:2e:e6:d2:69:d2:ed:16:9d:54:95:f5:4f:51:
         66:70:60:f4:87:98:8e:59:3e:0f:56:17:25:6e:e5:ff:be:ec:
         59:8b:23:75:89:37:fb:dc:d3:1e:04:49:89:ba:eb:4f:38:a1:
         1b:74:ec:53:a2:50:d8:3f:59:da:68:d5:c2:a7:99:4e:42:f7:
         50:a4:bf:a9:69:89:7f:f2:4f:e8:62:23:9c:e6:f6:07:2d:15:
         79:b0:a1:71:3f:9d:a0:42:1e:e6:08:cc:72:fe:73:71:58:be:
         32:ad:f1:28:3f:a4:e2:31
-----BEGIN CERTIFICATE-----
MIIFRzCCAy+gAwIBAgIEEkgWPzANBgkqhkiG9w0BAQwFADAmMSQwIgYDVQQDFBtD
QTFfc2hhMzg0XzQwOTZfNjU1MzdfdjNfY2EwHhcNMjEwOTE1MTk0NDMwWhcNNDEw
OTEwMTk0NDMwWjAoMSYwJAYDVQQDDB1TUksyX3NoYTM4NF80MDk2XzY1NTM3X3Yz
X3VzcjCCAiIwDQYJKoZIhvcNAQEBBQADggIPADCCAgoCggIBAMbzMnTEMDP1SqSM
TLRqcUlaWYis8kCfm+9UbRtsrY71g3HTMovgyiTc1WpymlPKqUkQEPaBZG4vMNq4
XyupNXl9sX5X5C/hfS0N+ZvnDqTjx88BxQ3GRYfY5NebeGEOjP5WH+toBsOwAw7e
9lplWV+rH2BBPhApyp7GK9p4Uc6aaGxLuHHQfc7vyMcpOvaX/k9jrQLubWjflI7w
orqA+Yajwu+SMzTge71QlX2DNYtG0Qt1FZ/I0xJa5cwIKyvxGofFx7u1Em28Fs/P
lm7DzPU0djH6OgOQUm0aKNvLjkiafOidQQtaRMHt6L1mWE3IJgyS7Qc/kukw+v+q
HrUDheDABu7woi9nn6owFwwWy35E2pFtdIpJR4VX3v2d5BTqi3N0C1WR9tkehQmm
3Kfc2zb30Z2It1kPy3uiuh3NYfYYQ82yeE964WlXv9nQRyIORxgwaUjx3Ay/Q4ps
GtqZ8ivDQ6/OCBboA7xayuHU1IBZcwYOYDG3YxX0S0D4oVwpmc5VrhaSVCl2NiX8
bpBRg/pgS8rLx31P+zPWZd3Qr1RiACCScRnOhzBuqBoiiUhQOZuf7Mo/YewTPA0N
Rsb2/ZMnGrebikP9vLtDPkZWIXAAMflVFs3QarIcKCd66Dfja8cCpHNI2U3oDNJ0
LMBor3gX1L/ukKp23BFHj6bY3P0XAgMBAAGjezB5MAkGA1UdEwQCMAAwLAYJYIZI
AYb4QgENBB8WHU9wZW5TU0wgR2VuZXJhdGVkIENlcnRpZmljYXRlMB0GA1UdDgQW
BBRKjrSfaRzEBhfBjOrWKSakoT6p1jAfBgNVHSMEGDAWgBTzxoPeu6L24AAZ95Oo
Py6NabtrGzANBgkqhkiG9w0BAQwFAAOCAgEAtU8pN5hxqCqxhWbbA45qRpBm6iai
LWfOiJ2/XDILRZHIs3f5vSY0ydNOuGoJh3SJrcWAZQRbHrmJCnBrSDA/ElTwd8cv
b5IEzghE9DbOSgARARSOqvN7MHnJ/dBB4IMlSol/1HJNpLLiJHUuj5bvHMliExED
LaZd4hti2emkd2Ki6A7/p4ICfqJ/lP7q2WXEhpWEfWbof1rPPMru/mnDavsDktUh
hhOImKt+jX8oYZo2s3SHN00b+IQFd/2EqcSf7qaL2Z50cwuXeDLJqSjgAkZ10nhe
9vhVavt2X4dND/I8LbO0NEGQGVCKTHh50X7LXHLeUtLGI4RAQMS8WeWBmKQBg+E0
yYykMHbNJQ4kpj8Ogbp6PWwcYZrDI9rq+e2bkwoFpA7CQv+DULHb9Kz71Mfx1RBc
0bVR/cMz178uV77+6JyRGqQW9P7PIdic4Gx0FIL3GsEUMzVyvXTHAJuO+svu4qhX
nljEgKviiEFrjGTa+zd4zU3fURoC68cFXmUiQxXRx1fbrYdtFk5H2XmioCku5tJp
0u0WnVSV9U9RZnBg9IeYjlk+D1YXJW7l/77sWYsjdYk3+9zTHgRJibrrTzihG3Ts
U6JQ2D9Z2mjVwqeZTkL3UKS/qWmJf/JP6GIjnOb2By0VebChcT+doEIe5gjMcv5z
cVi+Mq3xKD+k4jE=
-----END CERTIFICATE-----
