Certificate:
    Data:
        Version: 3 (0x2)
        Serial Number: 306714176 (0x12481640)
        Signature Algorithm: sha384WithRSAEncryption
        Issuer: CN=CA1_sha384_4096_65537_v3_ca
        Validity
            Not Before: Sep 15 19:44:31 2021 GMT
            Not After : Sep 10 19:44:31 2041 GMT
        Subject: CN=SRK3_sha384_4096_65537_v3_usr
        Subject Public Key Info:
            Public Key Algorithm: rsaEncryption
                RSA Public-Key: (4096 bit)
                Modulus:
                    00:9a:dc:35:f4:68:c2:d6:b9:b0:7b:67:79:d4:4e:
                    c7:7b:b3:cd:90:75:ec:9f:0f:35:e0:73:e7:48:91:
                    59:6f:c7:58:77:dc:cf:40:ff:0a:ac:19:60:48:b0:
                    ec:30:5b:db:ef:49:a0:7c:bd:49:ae:9d:63:0c:e2:
                    af:e5:e0:4e:ae:e0:f1:22:ea:25:7e:91:18:ea:08:
                    4c:0e:32:06:bf:2c:f2:e8:c7:2e:84:b8:3f:f7:80:
                    ea:3d:cd:12:27:86:16:4e:28:e3:6e:9e:83:93:9c:
                    ee:fe:e5:56:3a:c9:2d:5c:0a:08:01:0a:d0:81:f6:
                    f9:55:53:ab:59:03:29:82:e9:22:97:31:4f:ef:b6:
                    f5:b4:f7:e0:34:51:83:a2:5d:d0:b3:c0:1d:fd:1e:
                    f7:55:5c:fc:d2:d5:1d:34:89:f6:e0:bf:6d:bb:eb:
                    f5:28:c9:17:22:81:d5:c2:f8:d2:06:de:57:4c:ef:
                    aa:92:f9:8e:2f:0e:21:62:3a:9a:9d:84:8b:2c:03:
                    95:52:74:bb:a4:0b:14:da:8b:a2:7a:5a:12:52:ff:
                    bc:86:23:38:ef:a0:68:1a:f6:1b:50:2d:03:c1:f8:
                    c2:e6:56:87:e3:75:b4:05:a0:3a:df:3a:6a:11:1e:
                    e1:6e:97:11:cc:25:32:77:09:bc:4e:2d:48:17:9a:
                    ff:2c:b5:f8:10:f9:0e:d3:ed:4e:04:17:e6:4e:ab:
                    02:8f:ae:80:e1:79:50:bb:98:24:fe:32:a9:c9:bf:
                    ea:8a:f1:3d:c4:71:2e:fc:c7:38:eb:e2:34:bc:ad:
                    d4:b4:89:45:ee:0a:28:b0:37:ce:83:9e:5a:27:03:
                    73:23:66:ab:46:84:dd:b5:10:b2:15:bd:1a:ed:49:
                    10:7b:7f:ac:d3:e6:dc:02:86:fa:da:08:33:09:f8:
                    f4:da:dd:86:2d:21:e2:25:7e:56:08:02:bd:a2:a5:
                    9b:cd:fe:fa:05:99:35:06:0d:73:e8:7d:4f:74:f4:
                    46:f4:c2:97:6f:5f:f0:61:01:90:57:55:50:58:f3:
                    09:47:45:57:0d:4e:87:d5:08:e0:97:68:2b:5c:d6:
                    2b:d9:43:a4:68:8b:53:45:06:f0:2c:51:c6:82:be:
                    a7:a0:d2:fc:d5:8b:71:c2:f2:01:4b:b9:c9:26:e1:
                    1d:19:bd:f0:88:ab:34:9e:9e:f7:2b:75:d6:58:28:
                    a5:25:a9:3c:5f:5c:76:46:5f:31:6b:20:02:1f:d0:
                    d3:75:4f:4a:b9:46:68:2a:08:bb:d7:5d:53:1b:6e:
                    7d:02:d6:63:e9:19:1d:b5:55:3b:ca:ed:e2:91:ba:
                    8d:7e:cb:4a:56:92:f7:39:34:df:8c:90:b5:74:06:
                    7f:81:a7
                Exponent: 65537 (0x10001)
        X509v3 extensions:
            X509v3 Basic Constraints: 
                CA:FALSE
            Netscape Comment: 
                OpenSSL Generated Certificate
            X509v3 Subject Key Identifier: 
                1B:57:37:9B:AD:A9:1E:95:B6:34:7C:FD:71:AC:AC:F8:00:C5:35:B3
            X509v3 Authority Key Identifier: 
                keyid:F3:C6:83:DE:BB:A2:F6:E0:00:19:F7:93:A8:3F:2E:8D:69:BB:6B:1B

    Signature Algorithm: sha384WithRSAEncryption
         b1:27:af:73:70:a3:a8:ab:12:5c:53:c0:3f:10:75:90:f9:36:
         27:0e:0a:0e:b9:01:61:ac:6d:65:d3:63:d5:6d:61:95:19:59:
         e9:fb:df:15:ac:3d:eb:3b:66:73:76:49:ca:c8:af:12:aa:f3:
         81:f1:ad:91:fe:1b:d1:80:46:3b:37:18:61:e6:1f:3a:e5:57:
         17:98:67:07:13:bc:4c:44:ba:7a:e4:61:a1:a4:b6:e2:d8:4a:
         ab:d6:f7:ce:33:f9:34:1d:3f:92:56:44:23:6b:8d:e2:92:94:
         4f:04:0a:be:82:54:ea:70:08:b0:08:10:78:f9:ef:8d:46:3b:
         79:7f:a4:11:92:87:8c:2f:aa:24:d4:70:48:04:52:34:f1:f3:
         0e:7f:8a:24:2a:52:4b:15:fe:a5:f8:2e:21:21:f7:60:28:bc:
         70:11:b6:c9:a6:73:98:e1:6d:70:42:78:ad:c1:f3:00:b0:a1:
         7e:db:45:e8:c3:4e:b8:bd:54:a1:d1:fe:ba:72:96:2c:e3:ba:
         cb:b5:e5:25:11:95:f4:a6:09:52:1f:bc:43:58:bf:6f:fe:66:
         08:b3:02:c9:ae:ba:d2:a7:6b:d0:3a:55:ad:21:39:9f:28:9b:
         7b:2a:12:c7:9e:0a:06:89:42:e4:c6:57:e6:a8:e2:23:bb:b0:
         22:1e:48:77:27:9e:8f:47:90:06:d3:3d:ac:5d:34:fb:ab:78:
         7b:59:2f:1d:27:f6:4a:6f:a3:d6:7a:3c:97:4c:f0:94:b5:a3:
         82:e0:ed:ed:84:35:92:71:1b:0a:68:b2:a9:78:11:60:bd:4a:
         18:fb:87:b4:d0:27:af:d2:03:65:b3:94:6d:42:03:15:35:cb:
         e1:39:8c:e5:17:7f:53:03:f6:ba:9c:04:3d:2f:26:82:43:64:
         e3:dd:f5:a1:5b:3c:8b:1a:f9:42:44:88:b6:bd:03:72:85:3d:
         8e:c2:2f:1a:95:8d:ce:77:0a:cf:0e:8f:c4:ab:64:e5:4d:79:
         24:62:05:47:8d:ec:04:83:3a:09:b0:a1:ae:7b:0e:9f:ab:b2:
         97:87:70:cc:c5:7d:09:49:18:69:ef:6d:d8:44:05:c5:ca:68:
         a6:f3:e8:bd:27:86:8c:21:ae:48:e9:f5:1a:5c:33:8d:58:e2:
         42:5a:e0:88:d3:cd:0c:1b:d2:64:eb:36:65:35:25:86:20:4e:
         b2:62:5c:b5:9d:a6:10:0c:c7:0a:cf:51:67:9f:41:8c:41:14:
         be:08:62:3f:df:cd:63:e6:8c:68:c1:e2:b3:e8:c9:7d:e5:bd:
         5f:6d:52:c4:ec:8c:60:a7:b5:bb:3c:c0:28:72:9e:55:f3:1d:
         72:67:37:49:26:8e:be:51
-----BEGIN CERTIFICATE-----
MIIFRzCCAy+gAwIBAgIEEkgWQDANBgkqhkiG9w0BAQwFADAmMSQwIgYDVQQDFBtD
QTFfc2hhMzg0XzQwOTZfNjU1MzdfdjNfY2EwHhcNMjEwOTE1MTk0NDMxWhcNNDEw
OTEwMTk0NDMxWjAoMSYwJAYDVQQDDB1TUkszX3NoYTM4NF80MDk2XzY1NTM3X3Yz
X3VzcjCCAiIwDQYJKoZIhvcNAQEBBQADggIPADCCAgoCggIBAJrcNfRowta5sHtn
edROx3uzzZB17J8PNeBz50iRWW/HWHfcz0D/CqwZYEiw7DBb2+9JoHy9Sa6dYwzi
r+XgTq7g8SLqJX6RGOoITA4yBr8s8ujHLoS4P/eA6j3NEieGFk4o426eg5Oc7v7l
VjrJLVwKCAEK0IH2+VVTq1kDKYLpIpcxT++29bT34DRRg6Jd0LPAHf0e91Vc/NLV
HTSJ9uC/bbvr9SjJFyKB1cL40gbeV0zvqpL5ji8OIWI6mp2EiywDlVJ0u6QLFNqL
onpaElL/vIYjOO+gaBr2G1AtA8H4wuZWh+N1tAWgOt86ahEe4W6XEcwlMncJvE4t
SBea/yy1+BD5DtPtTgQX5k6rAo+ugOF5ULuYJP4yqcm/6orxPcRxLvzHOOviNLyt
1LSJRe4KKLA3zoOeWicDcyNmq0aE3bUQshW9Gu1JEHt/rNPm3AKG+toIMwn49Nrd
hi0h4iV+VggCvaKlm83++gWZNQYNc+h9T3T0RvTCl29f8GEBkFdVUFjzCUdFVw1O
h9UI4JdoK1zWK9lDpGiLU0UG8CxRxoK+p6DS/NWLccLyAUu5ySbhHRm98IirNJ6e
9yt11lgopSWpPF9cdkZfMWsgAh/Q03VPSrlGaCoIu9ddUxtufQLWY+kZHbVVO8rt
4pG6jX7LSlaS9zk034yQtXQGf4GnAgMBAAGjezB5MAkGA1UdEwQCMAAwLAYJYIZI
AYb4QgENBB8WHU9wZW5TU0wgR2VuZXJhdGVkIENlcnRpZmljYXRlMB0GA1UdDgQW
BBQbVzebrakelbY0fP1xrKz4AMU1szAfBgNVHSMEGDAWgBTzxoPeu6L24AAZ95Oo
Py6NabtrGzANBgkqhkiG9w0BAQwFAAOCAgEAsSevc3CjqKsSXFPAPxB1kPk2Jw4K
DrkBYaxtZdNj1W1hlRlZ6fvfFaw96ztmc3ZJysivEqrzgfGtkf4b0YBGOzcYYeYf
OuVXF5hnBxO8TES6euRhoaS24thKq9b3zjP5NB0/klZEI2uN4pKUTwQKvoJU6nAI
sAgQePnvjUY7eX+kEZKHjC+qJNRwSARSNPHzDn+KJCpSSxX+pfguISH3YCi8cBG2
yaZzmOFtcEJ4rcHzALChfttF6MNOuL1UodH+unKWLOO6y7XlJRGV9KYJUh+8Q1i/
b/5mCLMCya660qdr0DpVrSE5nyibeyoSx54KBolC5MZX5qjiI7uwIh5Idyeej0eQ
BtM9rF00+6t4e1kvHSf2Sm+j1no8l0zwlLWjguDt7YQ1knEbCmiyqXgRYL1KGPuH
tNAnr9IDZbOUbUIDFTXL4TmM5Rd/UwP2upwEPS8mgkNk4931oVs8ixr5QkSItr0D
coU9jsIvGpWNzncKzw6PxKtk5U15JGIFR43sBIM6CbChrnsOn6uyl4dwzMV9CUkY
ae9t2EQFxcpopvPovSeGjCGuSOn1GlwzjVjiQlrgiNPNDBvSZOs2ZTUlhiBOsmJc
tZ2mEAzHCs9RZ59BjEEUvghiP9/NY+aMaMHis+jJfeW9X21SxOyMYKe1uzzAKHKe
VfMdcmc3SSaOvlE=
-----END CERTIFICATE-----
