Certificate:
    Data:
        Version: 3 (0x2)
        Serial Number: 306714177 (0x12481641)
        Signature Algorithm: sha384WithRSAEncryption
        Issuer: CN=CA1_sha384_4096_65537_v3_ca
        Validity
            Not Before: Sep 15 19:44:32 2021 GMT
            Not After : Sep 10 19:44:32 2041 GMT
        Subject: CN=SRK4_sha384_4096_65537_v3_usr
        Subject Public Key Info:
            Public Key Algorithm: rsaEncryption
                RSA Public-Key: (4096 bit)
                Modulus:
                    00:ce:a2:76:cf:15:95:24:96:a7:9e:2e:35:b7:64:
                    50:df:f3:5b:b9:2b:4b:f3:4f:2c:48:cf:e5:d8:88:
                    7e:39:c1:74:91:52:b7:fb:5d:1b:ce:37:40:4b:9d:
                    ec:42:c5:41:9b:ae:9b:b8:e6:77:e3:6f:2a:5a:a1:
                    89:3c:6d:19:70:56:0e:1a:d6:0a:11:1c:de:a2:10:
                    44:00:e5:c7:f5:64:8f:28:38:46:43:9d:5f:41:54:
                    13:1f:ed:1f:1a:c5:2e:52:72:17:fa:88:07:13:4f:
                    a3:68:ef:0c:7d:42:d2:54:64:86:4f:c1:39:42:e9:
                    17:3a:34:e0:fb:66:2a:48:83:26:16:7c:b7:fe:7f:
                    ff:a4:0d:36:76:4a:66:f9:fc:8a:84:f0:19:b4:fb:
                    98:99:ad:de:ff:ba:46:78:fd:d9:af:ae:12:77:6b:
                    50:ea:ef:7a:db:29:ca:a1:cb:32:9c:67:b9:6b:7c:
                    f9:82:a6:2f:ef:d3:80:b2:30:0d:0c:21:65:89:2d:
                    09:65:32:5c:7a:b3:cf:80:f1:83:34:a0:03:d1:65:
                    67:a9:8d:2a:25:41:cd:f2:56:bd:62:bd:c0:36:cd:
                    eb:01:17:83:6f:30:d8:77:64:a0:20:15:b8:15:a5:
                    e1:59:df:72:a1:20:d6:ad:1c:b4:9e:31:11:08:ac:
                    6e:a3:cf:dd:20:d0:7f:d4:10:f6:28:c9:ba:9e:84:
                    2b:4e:99:b0:44:71:ca:13:82:69:ca:4b:13:06:8b:
                    66:ab:96:b6:8c:6c:a7:89:fa:ff:6e:60:57:27:31:
                    8a:cb:52:81:e9:ab:d3:c3:ca:a4:ee:2d:2e:72:95:
                    15:ef:37:cd:89:3c:83:39:b7:9b:54:b7:ec:4a:69:
                    77:08:f8:a6:64:67:fb:cf:8b:07:97:c6:79:90:5a:
                    26:46:21:29:9e:e3:88:c3:bb:b2:2b:4d:a5:fa:99:
                    35:29:91:36:c6:7f:33:5d:ea:3a:27:93:e2:d8:53:
                    a8:98:28:94:ee:b0:d9:e6:4a:d2:0b:96:41:91:69:
                    5d:9e:09:1d:21:6e:e7:63:0f:8f:ef:ec:e5:11:7a:
                    6a:a1:ab:15:01:00:a8:9b:1a:1a:94:25:3a:40:b1:
                    13:f5:15:d7:0d:6c:cf:26:fb:bb:9a:c6:70:9c:15:
                    98:0a:b7:33:b6:35:48:7a:cb:73:d9:8e:d6:8a:35:
                    4b:6f:81:38:a4:ff:6a:d7:57:20:e3:33:b6:dc:24:
                    5b:40:65:c5:a0:47:67:d4:25:60:0c:e1:57:a5:b6:
                    a8:9a:0a:24:db:37:da:5a:c9:a2:ee:25:f5:86:7c:
                    eb:28:c2:17:2a:a9:2d:3f:b9:f6:03:57:d5:c9:8b:
                    ed:81:51
                Exponent: 65537 (0x10001)
        X509v3 extensions:
            X509v3 Basic Constraints: 
                CA:FALSE
            Netscape Comment: 
                OpenSSL Generated Certificate
            X509v3 Subject Key Identifier: 
                58:BD:E0:D1:98:CA:F8:FC:E6:20:18:AD:9B:95:0D:3A:D7:AB:B1:43
            X509v3 Authority Key Identifier: 
                keyid:F3:C6:83:DE:BB:A2:F6:E0:00:19:F7:93:A8:3F:2E:8D:69:BB:6B:1B

    Signature Algorithm: sha384WithRSAEncryption
         64:f1:4f:99:88:c8:90:14:6f:28:73:cd:c7:c4:36:af:50:93:
         f3:6d:6f:51:d9:4d:5e:be:c0:88:9f:d2:04:11:de:4c:4f:6f:
         39:69:4e:a5:66:93:92:33:ba:05:33:0a:eb:04:3f:17:82:57:
         98:84:74:c3:1b:16:d8:ad:00:d3:b8:a8:2b:62:ce:85:b8:cb:
         1c:be:6f:56:2b:fc:ce:aa:40:09:75:d1:b8:a2:8c:2d:55:de:
         1f:d9:c4:5d:a7:59:53:d2:07:d1:3c:64:e4:1b:cc:ea:e3:31:
         9a:05:1f:50:1f:1a:63:98:23:74:42:4e:cd:3d:7d:ae:f4:06:
         cb:d6:d7:14:fc:ca:4e:74:ff:92:f8:48:a3:49:07:74:ed:df:
         be:2d:c4:d5:2d:cd:5a:c7:ed:99:0a:8e:c8:f3:c3:73:1a:4e:
         f3:f9:b3:c3:88:80:30:07:df:36:89:7a:9a:f0:36:a8:e7:3d:
         20:ff:f0:a4:58:75:2a:dd:13:99:d4:4c:f2:5b:ca:20:55:bf:
         48:a8:c1:f1:e6:b4:93:5d:52:49:f4:6b:e6:40:66:0a:47:6b:
         b8:24:a4:92:4c:d4:91:92:96:4b:d7:20:ac:ba:c6:6f:3c:53:
         57:02:c0:8c:85:ba:0d:36:21:f9:6c:d1:9c:05:2d:42:ec:0f:
         e5:63:6a:df:bc:22:4a:7f:f8:c6:9e:a6:c5:83:df:98:8e:9d:
         2c:67:96:61:7e:e1:86:20:98:47:1c:64:63:6d:a3:29:ae:6c:
         6c:55:31:14:81:b6:7c:d0:e9:ed:d0:76:67:27:cf:af:c5:20:
         72:f5:77:3e:b2:a9:4d:6e:30:79:ab:89:90:55:7b:53:3e:a8:
         71:47:8e:5c:17:a6:f5:64:fd:31:aa:2b:b4:59:16:2d:c4:10:
         6c:9e:74:7c:7d:81:6b:4f:49:73:e5:cb:18:04:65:33:0d:43:
         c0:92:60:47:0e:29:55:66:fe:41:5d:96:07:c7:8a:19:3f:d2:
         cf:78:d1:80:5f:ac:0c:b2:2f:1c:f6:67:66:29:e7:d7:23:95:
         ef:32:b2:a9:ca:97:11:a0:92:74:d3:f0:83:09:29:fd:08:37:
         56:d1:c0:77:1a:48:1c:01:c0:47:29:73:ab:be:e5:a5:e2:f0:
         b0:76:65:52:4e:fb:c4:28:9d:68:cf:b3:1b:6a:b7:6e:2e:88:
         1c:e5:c6:3b:c2:1a:1c:ff:0a:a4:f6:97:8d:7f:e0:84:11:cc:
         66:17:75:16:21:5b:4d:20:70:b2:a8:a5:22:0d:11:3c:cd:f7:
         7b:97:da:dd:bd:8c:44:34:80:4e:da:4f:e2:d4:58:ae:2f:d2:
         b2:bb:55:34:f8:90:a0:9d
-----BEGIN CERTIFICATE-----
MIIFRzCCAy+gAwIBAgIEEkgWQTANBgkqhkiG9w0BAQwFADAmMSQwIgYDVQQDFBtD
QTFfc2hhMzg0XzQwOTZfNjU1MzdfdjNfY2EwHhcNMjEwOTE1MTk0NDMyWhcNNDEw
OTEwMTk0NDMyWjAoMSYwJAYDVQQDDB1TUks0X3NoYTM4NF80MDk2XzY1NTM3X3Yz
X3VzcjCCAiIwDQYJKoZIhvcNAQEBBQADggIPADCCAgoCggIBAM6ids8VlSSWp54u
NbdkUN/zW7krS/NPLEjP5diIfjnBdJFSt/tdG843QEud7ELFQZuum7jmd+NvKlqh
iTxtGXBWDhrWChEc3qIQRADlx/Vkjyg4RkOdX0FUEx/tHxrFLlJyF/qIBxNPo2jv
DH1C0lRkhk/BOULpFzo04PtmKkiDJhZ8t/5//6QNNnZKZvn8ioTwGbT7mJmt3v+6
Rnj92a+uEndrUOrvetspyqHLMpxnuWt8+YKmL+/TgLIwDQwhZYktCWUyXHqzz4Dx
gzSgA9FlZ6mNKiVBzfJWvWK9wDbN6wEXg28w2HdkoCAVuBWl4VnfcqEg1q0ctJ4x
EQisbqPP3SDQf9QQ9ijJup6EK06ZsERxyhOCacpLEwaLZquWtoxsp4n6/25gVycx
istSgemr08PKpO4tLnKVFe83zYk8gzm3m1S37Eppdwj4pmRn+8+LB5fGeZBaJkYh
KZ7jiMO7sitNpfqZNSmRNsZ/M13qOieT4thTqJgolO6w2eZK0guWQZFpXZ4JHSFu
52MPj+/s5RF6aqGrFQEAqJsaGpQlOkCxE/UV1w1szyb7u5rGcJwVmAq3M7Y1SHrL
c9mO1oo1S2+BOKT/atdXIOMzttwkW0BlxaBHZ9QlYAzhV6W2qJoKJNs32lrJou4l
9YZ86yjCFyqpLT+59gNX1cmL7YFRAgMBAAGjezB5MAkGA1UdEwQCMAAwLAYJYIZI
AYb4QgENBB8WHU9wZW5TU0wgR2VuZXJhdGVkIENlcnRpZmljYXRlMB0GA1UdDgQW
BBRYveDRmMr4/OYgGK2blQ0616uxQzAfBgNVHSMEGDAWgBTzxoPeu6L24AAZ95Oo
Py6NabtrGzANBgkqhkiG9w0BAQwFAAOCAgEAZPFPmYjIkBRvKHPNx8Q2r1CT821v
UdlNXr7AiJ/SBBHeTE9vOWlOpWaTkjO6BTMK6wQ/F4JXmIR0wxsW2K0A07ioK2LO
hbjLHL5vViv8zqpACXXRuKKMLVXeH9nEXadZU9IH0Txk5BvM6uMxmgUfUB8aY5gj
dEJOzT19rvQGy9bXFPzKTnT/kvhIo0kHdO3fvi3E1S3NWsftmQqOyPPDcxpO8/mz
w4iAMAffNol6mvA2qOc9IP/wpFh1Kt0TmdRM8lvKIFW/SKjB8ea0k11SSfRr5kBm
CkdruCSkkkzUkZKWS9cgrLrGbzxTVwLAjIW6DTYh+WzRnAUtQuwP5WNq37wiSn/4
xp6mxYPfmI6dLGeWYX7hhiCYRxxkY22jKa5sbFUxFIG2fNDp7dB2ZyfPr8UgcvV3
PrKpTW4weauJkFV7Uz6ocUeOXBem9WT9MaortFkWLcQQbJ50fH2Ba09Jc+XLGARl
Mw1DwJJgRw4pVWb+QV2WB8eKGT/Sz3jRgF+sDLIvHPZnZinn1yOV7zKyqcqXEaCS
dNPwgwkp/Qg3VtHAdxpIHAHARylzq77lpeLwsHZlUk77xCidaM+zG2q3bi6IHOXG
O8IaHP8KpPaXjX/ghBHMZhd1FiFbTSBwsqilIg0RPM33e5fa3b2MRDSATtpP4tRY
ri/SsrtVNPiQoJ0=
-----END CERTIFICATE-----
