Certificate:
    Data:
        Version: 3 (0x2)
        Serial Number: 306714174 (0x1248163e)
        Signature Algorithm: sha384WithRSAEncryption
        Issuer: CN=CA1_sha384_4096_65537_v3_ca
        Validity
            Not Before: Sep 15 19:44:29 2021 GMT
            Not After : Sep 10 19:44:29 2041 GMT
        Subject: CN=SRK1_sha384_4096_65537_v3_usr
        Subject Public Key Info:
            Public Key Algorithm: rsaEncryption
                RSA Public-Key: (4096 bit)
                Modulus:
                    00:c2:ca:4c:4b:94:b5:9e:1a:5e:62:36:1e:fd:d2:
                    0f:3a:46:02:9b:99:c8:9c:0b:72:62:14:8e:eb:b6:
                    73:e1:77:6a:5e:c6:2d:48:82:6f:94:f6:bf:2e:a3:
                    60:50:73:0b:2d:6d:75:af:6d:b2:0f:8e:07:b2:ad:
                    fe:a8:3e:52:9f:d1:1d:1f:46:15:3c:1d:63:5c:87:
                    2f:60:9a:00:86:4e:0e:3a:3d:c0:20:b1:de:a9:14:
                    06:58:fa:85:ed:1d:8b:92:b0:c6:b6:d0:b1:b8:4b:
                    28:45:a8:90:9a:64:85:9b:bc:6b:21:b7:e9:4e:e1:
                    57:c4:1f:e4:a8:5e:b8:ff:f6:90:6e:ca:20:fc:9b:
                    f3:54:0b:4f:d1:1c:e0:a8:3a:99:41:cf:42:37:34:
                    49:9b:6a:14:25:f5:63:4f:86:46:76:9d:ad:93:01:
                    ec:f7:9e:d4:c7:e7:cd:17:27:f0:7d:23:a9:2f:34:
                    fd:bb:bb:fb:2b:27:b4:94:7b:d2:36:0c:cd:2a:20:
                    29:af:34:5b:f8:44:8d:ab:30:19:59:a9:bf:6c:c6:
                    34:59:11:fb:a9:fd:43:57:9e:13:1e:bd:b1:16:86:
                    cd:7f:41:40:d3:4b:04:5f:bf:18:14:0e:73:37:21:
                    7c:ae:a9:85:5b:0f:b8:30:88:00:ed:e6:76:30:63:
                    19:ff:53:65:80:ee:72:9f:66:10:65:55:c4:a4:dd:
                    b5:32:39:a4:96:7d:23:3c:14:1b:1c:98:26:88:06:
                    92:41:da:77:fc:4b:d2:27:74:58:62:2f:ee:9c:9c:
                    45:1b:70:79:9b:13:8c:ef:2f:94:3e:9d:3a:8c:ec:
                    81:32:77:84:b3:aa:fb:7d:8e:89:f7:cb:f8:80:cc:
                    fd:61:b1:ba:e2:3a:08:d2:ef:9b:a3:d0:6c:2a:de:
                    41:ea:0f:5b:b9:da:50:e8:8d:cc:21:43:50:ff:1e:
                    1c:f5:8e:0b:96:10:87:30:7d:be:cd:a8:6f:ac:f7:
                    f0:2c:bb:5a:28:cb:4c:7a:3e:1a:8c:41:e8:d7:50:
                    15:e3:4f:d7:c8:50:8a:75:c5:4c:d9:57:b1:e9:61:
                    cd:53:91:1e:9e:99:48:39:95:e6:40:23:ff:64:7f:
                    3a:8c:c6:b8:b3:aa:c1:74:ce:e6:6a:9a:bc:80:8c:
                    ed:25:8d:de:85:a9:21:d6:91:bc:bd:20:fa:83:0f:
                    a1:b8:c0:4d:64:be:bf:9b:ea:b5:89:43:e8:38:0e:
                    64:ec:a9:ac:17:60:7b:07:a8:4a:2b:8b:d7:5c:90:
                    ab:c1:47:9e:19:5f:bf:64:20:ba:e7:b2:67:54:16:
                    54:6d:61:35:d5:74:55:fe:12:a0:f2:9a:5f:7c:28:
                    43:14:9b
                Exponent: 65537 (0x10001)
        X509v3 extensions:
            X509v3 Basic Constraints: 
                CA:FALSE
            Netscape Comment: 
                OpenSSL Generated Certificate
            X509v3 Subject Key Identifier: 
                C5:8A:C5:95:43:2D:20:F1:9A:B6:AD:2A:19:4A:68:8C:56:D4:1B:83
            X509v3 Authority Key Identifier: 
                keyid:F3:C6:83:DE:BB:A2:F6:E0:00:19:F7:93:A8:3F:2E:8D:69:BB:6B:1B

    Signature Algorithm: sha384WithRSAEncryption
         2a:f1:cf:44:35:69:90:44:9c:4c:fe:ca:54:7b:9e:c5:ad:dd:
         73:af:74:a9:a0:d3:6b:0e:0c:52:0a:07:92:d9:30:3e:68:b1:
         07:23:8c:b5:cf:5a:48:db:f5:1a:34:ba:10:b9:54:0a:c2:95:
         8a:f7:62:69:de:8c:e5:c8:98:c7:bb:e3:d9:43:4a:14:4b:27:
         9d:66:6f:8d:97:19:3d:f8:23:36:66:73:69:7d:cf:23:ef:3c:
         35:65:c6:32:21:3a:1f:d0:78:db:3e:00:cc:32:f0:c1:86:e3:
         31:7b:0f:42:03:0b:fc:be:e9:fd:ff:db:c4:16:f2:68:c1:79:
         83:be:62:3d:0f:0d:da:a4:0f:3b:94:c3:da:ca:62:b3:50:65:
         55:05:32:01:81:56:68:2e:52:89:fc:5b:43:74:b3:6e:75:b3:
         bc:af:c7:2e:cd:82:d8:25:a9:3d:d9:3a:44:a7:f7:16:33:8d:
         c8:65:8f:39:3b:7d:52:59:93:b9:f5:c6:8b:85:87:7c:8d:a2:
         d1:29:3b:c2:8e:88:19:c3:75:83:22:76:04:99:f4:2f:02:b3:
         42:84:03:f1:36:0d:e8:95:0d:cc:23:d1:40:5e:4b:6d:aa:44:
         62:ce:74:16:dc:9b:f2:3c:af:e4:08:8c:14:e2:26:a3:f5:ee:
         f8:c7:9f:41:eb:d6:80:0a:82:68:37:97:f9:aa:a3:6b:1d:e8:
         1e:15:f2:a3:b7:b6:ae:e1:df:80:84:15:25:9e:b3:be:8e:b4:
         c4:a7:bc:d7:27:ec:5f:fa:72:d8:2c:41:39:f7:31:d4:89:ae:
         a8:ad:28:01:5f:fb:f8:6d:bd:6f:a0:11:a8:8e:42:ca:eb:f6:
         9e:85:67:9c:27:e9:42:ac:48:20:f9:19:9d:91:13:7c:de:2f:
         1b:57:d4:88:95:58:4c:5f:f8:d7:f7:9a:db:e4:de:73:11:5a:
         34:af:99:b2:20:20:a4:47:19:9f:17:dc:06:f7:bb:ed:6b:43:
         0b:53:79:9f:98:64:02:39:c2:3d:21:94:e2:d3:3d:05:fd:70:
         f1:8f:f3:f9:4a:6d:ba:cf:f5:01:0d:0d:91:bf:84:13:bf:24:
         7c:da:db:88:a5:11:b1:ba:1b:a0:dd:2f:57:f8:34:c7:a1:72:
         93:89:a5:e0:01:38:73:b6:1a:0d:d4:53:ef:a0:ab:f4:dd:72:
         fc:14:af:44:9f:ff:ad:17:f9:92:fd:33:f0:8e:0f:2b:be:6a:
         f6:47:54:bd:3b:32:44:a3:7b:1d:87:43:84:ab:b5:9d:64:77:
         21:92:73:a7:22:17:62:43:93:e2:c1:66:26:e5:4d:fb:21:c0:
         b6:a5:bf:6a:94:8d:18:a8
-----BEGIN CERTIFICATE-----
MIIFRzCCAy+gAwIBAgIEEkgWPjANBgkqhkiG9w0BAQwFADAmMSQwIgYDVQQDFBtD
QTFfc2hhMzg0XzQwOTZfNjU1MzdfdjNfY2EwHhcNMjEwOTE1MTk0NDI5WhcNNDEw
OTEwMTk0NDI5WjAoMSYwJAYDVQQDDB1TUksxX3NoYTM4NF80MDk2XzY1NTM3X3Yz
X3VzcjCCAiIwDQYJKoZIhvcNAQEBBQADggIPADCCAgoCggIBAMLKTEuUtZ4aXmI2
Hv3SDzpGApuZyJwLcmIUjuu2c+F3al7GLUiCb5T2vy6jYFBzCy1tda9tsg+OB7Kt
/qg+Up/RHR9GFTwdY1yHL2CaAIZODjo9wCCx3qkUBlj6he0di5KwxrbQsbhLKEWo
kJpkhZu8ayG36U7hV8Qf5KheuP/2kG7KIPyb81QLT9Ec4Kg6mUHPQjc0SZtqFCX1
Y0+GRnadrZMB7Pee1MfnzRcn8H0jqS80/bu7+ysntJR70jYMzSogKa80W/hEjasw
GVmpv2zGNFkR+6n9Q1eeEx69sRaGzX9BQNNLBF+/GBQOczchfK6phVsPuDCIAO3m
djBjGf9TZYDucp9mEGVVxKTdtTI5pJZ9IzwUGxyYJogGkkHad/xL0id0WGIv7pyc
RRtweZsTjO8vlD6dOozsgTJ3hLOq+32OiffL+IDM/WGxuuI6CNLvm6PQbCreQeoP
W7naUOiNzCFDUP8eHPWOC5YQhzB9vs2ob6z38Cy7WijLTHo+GoxB6NdQFeNP18hQ
inXFTNlXselhzVORHp6ZSDmV5kAj/2R/OozGuLOqwXTO5mqavICM7SWN3oWpIdaR
vL0g+oMPobjATWS+v5vqtYlD6DgOZOyprBdgeweoSiuL11yQq8FHnhlfv2Qguuey
Z1QWVG1hNdV0Vf4SoPKaX3woQxSbAgMBAAGjezB5MAkGA1UdEwQCMAAwLAYJYIZI
AYb4QgENBB8WHU9wZW5TU0wgR2VuZXJhdGVkIENlcnRpZmljYXRlMB0GA1UdDgQW
BBTFisWVQy0g8Zq2rSoZSmiMVtQbgzAfBgNVHSMEGDAWgBTzxoPeu6L24AAZ95Oo
Py6NabtrGzANBgkqhkiG9w0BAQwFAAOCAgEAKvHPRDVpkEScTP7KVHuexa3dc690
qaDTaw4MUgoHktkwPmixByOMtc9aSNv1GjS6ELlUCsKVivdiad6M5ciYx7vj2UNK
FEsnnWZvjZcZPfgjNmZzaX3PI+88NWXGMiE6H9B42z4AzDLwwYbjMXsPQgML/L7p
/f/bxBbyaMF5g75iPQ8N2qQPO5TD2spis1BlVQUyAYFWaC5SifxbQ3SzbnWzvK/H
Ls2C2CWpPdk6RKf3FjONyGWPOTt9UlmTufXGi4WHfI2i0Sk7wo6IGcN1gyJ2BJn0
LwKzQoQD8TYN6JUNzCPRQF5LbapEYs50Ftyb8jyv5AiMFOImo/Xu+MefQevWgAqC
aDeX+aqjax3oHhXyo7e2ruHfgIQVJZ6zvo60xKe81yfsX/py2CxBOfcx1ImuqK0o
AV/7+G29b6ARqI5Cyuv2noVnnCfpQqxIIPkZnZETfN4vG1fUiJVYTF/41/ea2+Te
cxFaNK+ZsiAgpEcZnxfcBve77WtDC1N5n5hkAjnCPSGU4tM9Bf1w8Y/z+Uptus/1
AQ0Nkb+EE78kfNrbiKURsboboN0vV/g0x6Fyk4ml4AE4c7YaDdRT76Cr9N1y/BSv
RJ//rRf5kv0z8I4PK75q9kdUvTsyRKN7HYdDhKu1nWR3IZJzpyIXYkOT4sFmJuVN
+yHAtqW/apSNGKg=
-----END CERTIFICATE-----
