Certificate:
    Data:
        Version: 3 (0x2)
        Serial Number: 306714174 (0x1248163e)
        Signature Algorithm: ecdsa-with-SHA384
        Issuer: CN=CA1_sha384_secp384r1_v3_ca
        Validity
            Not Before: Mar  4 14:55:16 2025 GMT
            Not After : Feb 27 14:55:16 2045 GMT
        Subject: CN=SRK1_sha384_secp384r1_v3_usr
        Subject Public Key Info:
            Public Key Algorithm: id-ecPublicKey
                Public-Key: (384 bit)
                pub:
                    04:76:33:e4:8f:39:91:4e:41:c7:03:09:78:60:62:
                    52:db:ed:e9:8a:44:52:95:22:28:e6:7f:dc:37:e0:
                    86:19:dc:23:de:ae:58:b0:a7:b3:b6:7e:36:c0:51:
                    19:5b:fa:aa:1d:a9:d5:f6:b8:13:b4:63:1a:a3:13:
                    a3:76:0e:6f:68:a8:54:f4:2f:02:db:89:34:18:70:
                    e4:ad:61:09:11:03:89:9a:0c:c0:74:0e:c8:b2:6d:
                    bf:e0:fc:4b:39:f1:18
                ASN1 OID: secp384r1
                NIST CURVE: P-384
        X509v3 extensions:
            X509v3 Basic Constraints: 
                CA:FALSE
            Netscape Comment: 
                OpenSSL Generated Certificate
            X509v3 Subject Key Identifier: 
                E1:D3:2A:D4:9E:FF:3C:10:BF:E0:3A:54:F7:7D:04:F5:37:45:08:E1
            X509v3 Authority Key Identifier: 
                1F:15:9B:EA:37:F4:8D:EB:60:F7:A5:9C:F0:23:A4:56:99:B0:06:27
    Signature Algorithm: ecdsa-with-SHA384
    Signature Value:
        30:64:02:30:10:f5:5f:fd:64:ad:1a:75:90:c2:4b:21:08:50:
        56:ff:25:6f:ab:4d:fe:96:99:66:76:8b:17:6b:b4:7e:0c:1a:
        2d:69:7b:bc:27:d0:91:36:95:5e:f1:d8:ec:b5:eb:e3:02:30:
        7e:d2:24:e8:99:6b:27:fe:38:04:76:5d:be:68:eb:f4:4d:5c:
        e8:c8:db:30:ca:cd:1f:ae:0a:95:3b:09:9a:4d:0f:36:f3:10:
        11:1f:d2:18:1a:f7:05:12:d1:b0:a4:fe
-----BEGIN CERTIFICATE-----
MIIB9TCCAXygAwIBAgIEEkgWPjAKBggqhkjOPQQDAzAlMSMwIQYDVQQDFBpDQTFf
c2hhMzg0X3NlY3AzODRyMV92M19jYTAeFw0yNTAzMDQxNDU1MTZaFw00NTAyMjcx
NDU1MTZaMCcxJTAjBgNVBAMMHFNSSzFfc2hhMzg0X3NlY3AzODRyMV92M191c3Iw
djAQBgcqhkjOPQIBBgUrgQQAIgNiAAR2M+SPOZFOQccDCXhgYlLb7emKRFKVIijm
f9w34IYZ3CPerliwp7O2fjbAURlb+qodqdX2uBO0YxqjE6N2Dm9oqFT0LwLbiTQY
cOStYQkRA4maDMB0Dsiybb/g/Es58RijezB5MAkGA1UdEwQCMAAwLAYJYIZIAYb4
QgENBB8WHU9wZW5TU0wgR2VuZXJhdGVkIENlcnRpZmljYXRlMB0GA1UdDgQWBBTh
0yrUnv88EL/gOlT3fQT1N0UI4TAfBgNVHSMEGDAWgBQfFZvqN/SN62D3pZzwI6RW
mbAGJzAKBggqhkjOPQQDAwNnADBkAjAQ9V/9ZK0adZDCSyEIUFb/JW+rTf6WmWZ2
ixdrtH4MGi1pe7wn0JE2lV7x2Oy16+MCMH7SJOiZayf+OAR2Xb5o6/RNXOjI2zDK
zR+uCpU7CZpNDzbzEBEf0hga9wUS0bCk/g==
-----END CERTIFICATE-----
