Certificate:
    Data:
        Version: 3 (0x2)
        Serial Number: 306714176 (0x12481640)
        Signature Algorithm: ecdsa-with-SHA384
        Issuer: CN=CA1_sha384_secp384r1_v3_ca
        Validity
            Not Before: Mar  4 14:55:16 2025 GMT
            Not After : Feb 27 14:55:16 2045 GMT
        Subject: CN=SRK3_sha384_secp384r1_v3_usr
        Subject Public Key Info:
            Public Key Algorithm: id-ecPublicKey
                Public-Key: (384 bit)
                pub:
                    04:41:70:9a:29:b4:ac:8b:0e:a3:b9:f4:90:38:f2:
                    3e:eb:c2:97:0c:0a:3b:75:6c:83:92:93:3f:3c:2a:
                    79:1c:5e:13:82:b3:4a:81:41:4c:3d:2e:e2:b4:0b:
                    fa:f4:aa:3e:51:74:a1:b2:be:0d:d9:95:24:4e:78:
                    2b:0b:34:4b:70:06:55:a5:a4:82:42:99:ec:34:cc:
                    7c:18:fd:c4:4a:b5:7a:64:e2:ff:52:fe:a0:f2:d0:
                    06:bb:12:1b:0f:d3:e1
                ASN1 OID: secp384r1
                NIST CURVE: P-384
        X509v3 extensions:
            X509v3 Basic Constraints: 
                CA:FALSE
            Netscape Comment: 
                OpenSSL Generated Certificate
            X509v3 Subject Key Identifier: 
                91:E3:E0:CB:B8:54:B3:14:40:12:19:C8:80:6F:D3:6C:36:36:4F:1C
            X509v3 Authority Key Identifier: 
                1F:15:9B:EA:37:F4:8D:EB:60:F7:A5:9C:F0:23:A4:56:99:B0:06:27
    Signature Algorithm: ecdsa-with-SHA384
    Signature Value:
        30:65:02:31:00:a0:2a:77:f4:2f:a5:28:ef:83:19:d2:6f:48:
        55:ad:a7:ab:66:26:52:51:96:6c:43:06:54:b5:00:9e:fb:89:
        96:8e:dc:5b:61:74:8c:ad:1d:2d:17:9a:e1:6f:17:a2:26:02:
        30:63:07:70:8d:a4:bc:99:94:73:f1:4b:34:8c:09:14:be:5d:
        fa:0f:e0:b3:8c:da:95:1a:55:f3:26:ca:fc:74:31:f4:ed:72:
        d3:b2:4a:54:bd:f5:e4:c7:14:de:b2:93:b2
-----BEGIN CERTIFICATE-----
MIIB9jCCAXygAwIBAgIEEkgWQDAKBggqhkjOPQQDAzAlMSMwIQYDVQQDFBpDQTFf
c2hhMzg0X3NlY3AzODRyMV92M19jYTAeFw0yNTAzMDQxNDU1MTZaFw00NTAyMjcx
NDU1MTZaMCcxJTAjBgNVBAMMHFNSSzNfc2hhMzg0X3NlY3AzODRyMV92M191c3Iw
djAQBgcqhkjOPQIBBgUrgQQAIgNiAARBcJoptKyLDqO59JA48j7rwpcMCjt1bIOS
kz88KnkcXhOCs0qBQUw9LuK0C/r0qj5RdKGyvg3ZlSROeCsLNEtwBlWlpIJCmew0
zHwY/cRKtXpk4v9S/qDy0Aa7EhsP0+GjezB5MAkGA1UdEwQCMAAwLAYJYIZIAYb4
QgENBB8WHU9wZW5TU0wgR2VuZXJhdGVkIENlcnRpZmljYXRlMB0GA1UdDgQWBBSR
4+DLuFSzFEASGciAb9NsNjZPHDAfBgNVHSMEGDAWgBQfFZvqN/SN62D3pZzwI6RW
mbAGJzAKBggqhkjOPQQDAwNoADBlAjEAoCp39C+lKO+DGdJvSFWtp6tmJlJRlmxD
BlS1AJ77iZaO3FthdIytHS0XmuFvF6ImAjBjB3CNpLyZlHPxSzSMCRS+XfoP4LOM
2pUaVfMmyvx0MfTtctOySlS99eTHFN6yk7I=
-----END CERTIFICATE-----
