Certificate:
    Data:
        Version: 3 (0x2)
        Serial Number: 306714165 (0x12481635)
        Signature Algorithm: sha256WithRSAEncryption
        Issuer: CN=CA1_sha256_4096_65537_v3_ca
        Validity
            Not Before: Aug 24 17:06:36 2021 GMT
            Not After : Aug 22 17:06:36 2031 GMT
        Subject: CN=SRK2_sha256_4096_65537_v3_ca
        Subject Public Key Info:
            Public Key Algorithm: rsaEncryption
                RSA Public-Key: (4096 bit)
                Modulus:
                    00:c1:91:c7:f4:ed:0c:5e:dc:6c:7c:d8:22:90:ef:
                    b8:40:2b:84:d9:45:64:23:31:70:15:c6:de:7d:f3:
                    41:9e:69:f2:d1:e1:2c:a2:04:81:f8:ba:fc:9e:a9:
                    ff:07:02:4e:77:b8:ea:5b:d1:f0:04:53:74:bd:71:
                    c0:ce:f2:45:4e:0d:4b:55:aa:bb:44:ae:31:3d:45:
                    64:d7:28:62:1b:4e:79:8e:f9:0f:65:74:67:42:06:
                    ab:2a:1e:4f:22:7b:e8:c6:23:74:b6:48:2a:1c:35:
                    d2:48:fd:e7:2e:7c:03:5d:98:3a:8f:6d:81:c4:99:
                    12:94:86:d8:7f:34:49:d9:04:dd:bd:b9:40:f0:af:
                    0a:9e:11:af:2f:06:28:33:9e:c8:12:dc:ac:ec:71:
                    cb:df:e4:d2:cd:19:94:a9:e2:f1:8e:1d:60:ea:54:
                    74:6e:4c:38:c2:28:70:d9:d7:e2:f1:fd:e3:ea:71:
                    27:d1:a0:82:f4:e1:de:17:0f:9c:53:96:c8:3f:a1:
                    53:7f:5b:74:f6:2d:93:b9:22:a6:6f:46:cc:d1:6e:
                    42:5c:67:c5:a1:0d:96:f9:4f:6c:b2:09:d4:6f:b9:
                    25:0d:4a:8d:e0:82:47:ed:93:a5:7b:16:eb:76:31:
                    5d:67:03:9b:cd:4b:16:65:c2:b5:0e:63:a9:35:f2:
                    f1:73:0a:1b:6f:a9:f9:1d:74:76:c9:10:6a:95:9b:
                    d3:30:1c:af:39:42:e9:c6:79:11:83:b7:4a:d7:24:
                    c8:e2:82:5e:3d:f8:6e:6b:ca:7c:09:60:b9:be:49:
                    2a:83:b0:8f:27:86:c9:df:59:2e:43:4d:0d:47:fa:
                    8a:62:68:a7:53:73:50:cb:6b:a2:ec:64:98:fd:4f:
                    41:f7:fd:14:74:77:0e:5e:fe:41:e8:a8:0f:8d:8a:
                    ee:e0:3b:b8:df:2b:12:ad:06:f8:3f:57:6c:3d:9c:
                    37:47:a3:c4:d1:9e:f3:f8:fa:a1:c2:06:08:23:fc:
                    0d:59:8c:23:94:43:eb:86:26:d7:af:f4:08:00:cf:
                    49:5e:4e:9d:85:42:d3:72:f6:e3:d8:94:cf:24:b0:
                    33:71:04:49:95:57:5e:fb:ee:02:b2:75:b4:fe:49:
                    0a:b1:b6:35:08:0a:d3:03:ea:54:9a:82:f8:86:6f:
                    52:b7:2c:9b:3d:5b:64:9a:21:85:c1:b1:0a:cf:6a:
                    cd:03:e5:ad:86:f5:d2:7d:ef:13:68:fd:b7:2f:aa:
                    3f:d8:14:93:fc:d2:1f:b1:2f:1e:bc:2b:31:59:df:
                    73:4f:b9:e5:70:ea:2d:5c:85:d4:53:d3:a1:69:68:
                    be:ee:9c:ef:1d:09:05:fd:bc:b7:95:dc:33:99:a8:
                    9a:6e:31
                Exponent: 65537 (0x10001)
        X509v3 extensions:
            X509v3 Subject Key Identifier: 
                4E:DC:5E:1F:E7:0B:04:58:63:45:59:CA:03:08:2D:F5:7A:7B:7E:24
            X509v3 Authority Key Identifier: 
                keyid:8A:9E:AB:9C:91:44:BE:4D:84:88:42:40:A8:5A:32:41:4E:CF:16:E7
                DirName:/CN=CA1_sha256_4096_65537_v3_ca
                serial:57:08:A1:04:B2:94:E6:87:A5:AE:7E:EB:93:B6:B6:D6:97:D5:BC:84

            X509v3 Basic Constraints: critical
                CA:TRUE
            X509v3 Key Usage: 
                Certificate Sign
    Signature Algorithm: sha256WithRSAEncryption
         63:d9:69:c8:c6:c9:7e:6d:69:bf:9a:52:20:28:a5:83:7a:4d:
         0e:ef:38:3f:73:63:38:5f:0f:b8:d6:c6:b5:71:5b:13:a7:b7:
         a2:b7:85:9b:36:65:52:55:e7:84:f7:01:e9:6e:f3:b1:f9:38:
         8c:bb:2b:43:bc:71:c9:78:75:5c:48:a7:60:88:5b:af:23:4c:
         d4:19:65:6d:68:cc:81:5a:f7:8f:bf:9d:3d:4d:06:33:35:d6:
         ff:ca:10:52:d5:f9:3f:e6:1e:7b:69:b0:84:24:2d:98:a7:c2:
         b9:40:43:81:3a:1e:50:f1:10:38:f1:ef:4f:34:ac:94:60:40:
         f4:9f:ac:8b:61:ac:9f:47:f6:34:03:70:88:74:a6:66:47:69:
         b2:9f:ca:77:c7:b9:45:41:69:d0:7a:5c:75:f4:ab:29:bd:dd:
         40:be:43:5e:6c:2f:03:af:69:d2:11:c8:d4:cd:f1:b8:d3:2a:
         2c:4f:6a:9e:a9:a9:3d:a0:c9:47:8e:25:55:cc:c5:7c:97:17:
         1c:41:6d:3a:61:32:2d:6e:3d:0f:65:68:3e:d3:29:7f:9e:35:
         59:5c:12:96:fb:31:f3:4b:8f:da:f9:a1:b4:dd:7d:3f:3e:98:
         ef:be:20:2b:34:6c:6d:8e:ce:8b:f6:36:b9:aa:57:fe:d9:f5:
         07:13:de:71:f3:2a:5e:5e:4b:10:28:f3:ea:20:a6:72:64:0b:
         1d:c8:b5:ca:85:cb:7a:ae:0b:fa:7d:36:75:89:16:03:29:4c:
         98:2b:10:a5:95:cc:4f:85:6d:c5:1e:72:47:e2:d9:03:67:5b:
         29:04:07:55:62:d5:8d:69:e4:0e:7b:1e:2b:70:a9:3e:f2:7e:
         bc:34:04:d0:a0:d4:68:c9:af:44:3a:7c:1a:43:98:04:e7:5e:
         96:af:68:e4:94:be:fa:d8:59:17:41:58:70:f5:bb:6d:53:19:
         b7:27:b1:cf:66:d3:45:cc:e4:52:e3:69:eb:9f:14:1d:38:08:
         d2:e4:53:d7:02:c1:d9:8c:67:22:4e:e8:27:e8:ca:ef:45:4b:
         3e:ed:25:97:ca:d9:cc:f5:c5:f3:91:a9:b7:e9:f8:9d:2f:85:
         02:a3:7d:77:91:ef:b5:34:c7:cf:2b:a8:4f:a8:ea:68:f5:43:
         f1:66:34:85:2a:b1:2b:93:39:6c:8d:47:5a:c5:60:cd:57:fb:
         29:b8:59:d2:df:d0:9d:b8:ec:70:5e:30:36:37:a8:11:a3:36:
         6e:ca:3e:97:c6:79:0b:af:31:dd:ae:b6:51:7c:c8:8e:42:e0:
         8a:9a:10:31:4c:6b:4d:1d:fa:7e:2f:db:d0:55:11:93:15:cc:
         ce:98:dd:46:1f:80:c8:36
-----BEGIN CERTIFICATE-----
MIIFbzCCA1egAwIBAgIEEkgWNTANBgkqhkiG9w0BAQsFADAmMSQwIgYDVQQDFBtD
QTFfc2hhMjU2XzQwOTZfNjU1MzdfdjNfY2EwHhcNMjEwODI0MTcwNjM2WhcNMzEw
ODIyMTcwNjM2WjAnMSUwIwYDVQQDDBxTUksyX3NoYTI1Nl80MDk2XzY1NTM3X3Yz
X2NhMIICIjANBgkqhkiG9w0BAQEFAAOCAg8AMIICCgKCAgEAwZHH9O0MXtxsfNgi
kO+4QCuE2UVkIzFwFcbeffNBnmny0eEsogSB+Lr8nqn/BwJOd7jqW9HwBFN0vXHA
zvJFTg1LVaq7RK4xPUVk1yhiG055jvkPZXRnQgarKh5PInvoxiN0tkgqHDXSSP3n
LnwDXZg6j22BxJkSlIbYfzRJ2QTdvblA8K8KnhGvLwYoM57IEtys7HHL3+TSzRmU
qeLxjh1g6lR0bkw4wihw2dfi8f3j6nEn0aCC9OHeFw+cU5bIP6FTf1t09i2TuSKm
b0bM0W5CXGfFoQ2W+U9ssgnUb7klDUqN4IJH7ZOlexbrdjFdZwObzUsWZcK1DmOp
NfLxcwobb6n5HXR2yRBqlZvTMByvOULpxnkRg7dK1yTI4oJePfhua8p8CWC5vkkq
g7CPJ4bJ31kuQ00NR/qKYminU3NQy2ui7GSY/U9B9/0UdHcOXv5B6KgPjYru4Du4
3ysSrQb4P1dsPZw3R6PE0Z7z+PqhwgYII/wNWYwjlEPrhibXr/QIAM9JXk6dhULT
cvbj2JTPJLAzcQRJlVde++4CsnW0/kkKsbY1CArTA+pUmoL4hm9StyybPVtkmiGF
wbEKz2rNA+WthvXSfe8TaP23L6o/2BST/NIfsS8evCsxWd9zT7nlcOotXIXUU9Oh
aWi+7pzvHQkF/by3ldwzmaiabjECAwEAAaOBozCBoDAdBgNVHQ4EFgQUTtxeH+cL
BFhjRVnKAwgt9Xp7fiQwYQYDVR0jBFowWIAUip6rnJFEvk2EiEJAqFoyQU7PFueh
KqQoMCYxJDAiBgNVBAMUG0NBMV9zaGEyNTZfNDA5Nl82NTUzN192M19jYYIUVwih
BLKU5oelrn7rk7a21pfVvIQwDwYDVR0TAQH/BAUwAwEB/zALBgNVHQ8EBAMCAgQw
DQYJKoZIhvcNAQELBQADggIBAGPZacjGyX5tab+aUiAopYN6TQ7vOD9zYzhfD7jW
xrVxWxOnt6K3hZs2ZVJV54T3Aelu87H5OIy7K0O8ccl4dVxIp2CIW68jTNQZZW1o
zIFa94+/nT1NBjM11v/KEFLV+T/mHntpsIQkLZinwrlAQ4E6HlDxEDjx7080rJRg
QPSfrIthrJ9H9jQDcIh0pmZHabKfynfHuUVBadB6XHX0qym93UC+Q15sLwOvadIR
yNTN8bjTKixPap6pqT2gyUeOJVXMxXyXFxxBbTphMi1uPQ9laD7TKX+eNVlcEpb7
MfNLj9r5obTdfT8+mO++ICs0bG2Ozov2NrmqV/7Z9QcT3nHzKl5eSxAo8+ogpnJk
Cx3ItcqFy3quC/p9NnWJFgMpTJgrEKWVzE+FbcUeckfi2QNnWykEB1Vi1Y1p5A57
HitwqT7yfrw0BNCg1GjJr0Q6fBpDmATnXpavaOSUvvrYWRdBWHD1u21TGbcnsc9m
00XM5FLjaeufFB04CNLkU9cCwdmMZyJO6Cfoyu9FSz7tJZfK2cz1xfORqbfp+J0v
hQKjfXeR77U0x88rqE+o6mj1Q/FmNIUqsSuTOWyNR1rFYM1X+ym4WdLf0J247HBe
MDY3qBGjNm7KPpfGeQuvMd2utlF8yI5C4IqaEDFMa00d+n4v29BVEZMVzM6Y3UYf
gMg2
-----END CERTIFICATE-----
