Certificate:
    Data:
        Version: 3 (0x2)
        Serial Number: 306714167 (0x12481637)
        Signature Algorithm: sha256WithRSAEncryption
        Issuer: CN=SRK2_sha256_4096_65537_v3_ca
        Validity
            Not Before: Aug 24 17:06:38 2021 GMT
            Not After : Aug 22 17:06:38 2031 GMT
        Subject: CN=IMG2_1_sha256_4096_65537_v3_usr
        Subject Public Key Info:
            Public Key Algorithm: rsaEncryption
                RSA Public-Key: (4096 bit)
                Modulus:
                    00:dd:92:40:12:f6:62:d1:cc:7b:4c:e4:7a:40:06:
                    75:80:3f:61:e7:3b:af:0a:ac:ae:c5:9f:cd:12:97:
                    72:f4:65:56:05:12:ac:5e:ef:b1:d3:b0:51:97:4c:
                    41:73:7d:93:88:d0:d0:21:a3:f2:29:86:eb:a2:bc:
                    68:94:9e:1c:4c:2c:06:1d:a9:7a:8b:0b:3c:59:a1:
                    40:48:c7:74:61:19:a4:64:75:84:a3:45:0f:a6:86:
                    24:18:d3:0e:9c:eb:cc:76:ae:c2:96:23:7c:58:d5:
                    eb:a3:89:cc:d7:dd:c8:44:e3:48:5f:5c:be:fe:59:
                    e5:42:f7:23:92:32:ff:ac:8c:26:69:a5:7b:26:92:
                    12:2f:21:53:33:fb:04:56:5f:56:83:f1:7b:15:61:
                    d5:2e:ca:e5:c8:c8:1a:fe:44:29:db:af:56:28:46:
                    76:49:55:33:9b:cb:e2:6f:36:33:5a:df:36:3b:9c:
                    75:74:79:3b:00:97:07:4d:bc:95:7b:3e:f8:69:d6:
                    e3:5f:7b:92:98:30:02:9b:23:4d:fe:22:e0:72:81:
                    16:2b:2f:44:2e:7c:a5:fb:6c:9e:1a:48:f0:11:02:
                    3f:4d:8b:1a:9e:54:bf:82:de:3c:33:ad:ce:be:f3:
                    49:f5:85:f4:58:e6:f8:20:8a:27:0c:a4:6f:28:dd:
                    83:31:c6:78:39:bf:65:7f:24:b5:ef:ea:07:cf:64:
                    5e:ed:71:45:50:66:e6:a9:60:86:bc:4a:2e:79:45:
                    4e:32:e7:0c:fe:3d:71:0e:a0:28:f2:4e:a4:6a:b0:
                    92:00:e3:2a:4f:07:ec:f8:d7:82:c1:8b:0b:0c:4f:
                    e6:f8:0d:08:29:cd:74:f0:b6:c3:88:ac:64:27:bf:
                    4b:4b:5e:bf:57:11:b1:e1:95:72:08:48:2f:6a:ee:
                    50:45:61:f1:89:6e:f5:e1:ae:6d:9a:00:5e:5f:1e:
                    aa:86:81:6a:cb:1c:34:75:f2:51:08:43:9f:4f:f4:
                    b0:84:40:d9:bf:68:10:09:bb:bc:7a:e6:3f:b9:e1:
                    03:b2:25:95:26:31:9a:27:43:57:4d:84:9a:fe:70:
                    72:06:60:72:f4:03:73:af:17:f6:8f:11:c3:58:04:
                    59:03:90:a8:3f:63:7c:d0:39:97:78:0f:72:16:94:
                    4e:e3:31:3c:46:52:77:45:b2:d6:9a:5f:58:59:ee:
                    e6:38:9d:b8:56:e9:1d:20:2c:75:88:32:19:0b:ad:
                    20:8c:e6:af:63:96:c7:7f:bf:e9:9a:ad:56:fa:a0:
                    2b:88:93:d9:27:cf:8f:71:fa:7f:14:97:eb:5b:be:
                    2a:01:31:12:ca:83:8b:c1:26:ba:8f:66:6a:55:62:
                    d5:d1:19
                Exponent: 65537 (0x10001)
        X509v3 extensions:
            X509v3 Basic Constraints: 
                CA:FALSE
            Netscape Comment: 
                OpenSSL Generated Certificate
            X509v3 Subject Key Identifier: 
                A3:DA:A8:28:F4:F4:96:ED:A2:76:FA:50:6F:D3:34:37:A9:7B:56:4D
            X509v3 Authority Key Identifier: 
                keyid:4E:DC:5E:1F:E7:0B:04:58:63:45:59:CA:03:08:2D:F5:7A:7B:7E:24

    Signature Algorithm: sha256WithRSAEncryption
         a5:cb:71:b9:b9:f8:32:b2:3d:28:7a:2a:73:a7:e8:cd:1a:41:
         70:85:7b:37:91:c5:54:01:5e:42:71:c9:e1:17:09:e5:ea:7e:
         0f:ac:af:41:4c:53:db:29:94:68:60:4e:72:f5:2b:38:5c:73:
         fc:c8:8b:cc:61:1e:04:e3:eb:39:3e:1c:15:bd:e9:7f:9a:ec:
         d2:77:db:30:e2:54:fc:4a:9a:b2:fd:46:09:84:62:0f:a0:5f:
         df:04:78:ba:a2:ad:65:8c:90:e9:36:1a:08:6e:7d:6c:6e:9f:
         98:0a:bb:43:89:6d:42:9f:91:06:d6:ab:1d:73:dc:a7:cd:43:
         e6:6e:1f:70:59:24:4d:ab:88:78:eb:7e:d8:cf:b4:8d:e7:de:
         5c:43:e0:0e:73:eb:1e:37:e1:11:a2:57:fd:dd:23:87:d9:96:
         bb:cd:2d:14:b1:0b:26:cb:f5:b9:e4:d7:39:3c:06:08:62:30:
         20:6a:30:50:c4:cc:af:bd:ab:d8:98:12:e8:5d:76:68:c5:77:
         2b:03:0a:a8:aa:5c:cb:85:ca:4f:6e:a4:c9:67:2a:48:05:a6:
         b4:c9:9e:64:9e:d0:b4:89:f5:76:d4:24:9c:c0:dc:11:42:9e:
         66:b8:a1:1c:d4:be:c3:54:2f:6a:f1:89:02:d8:a0:de:1c:5d:
         34:e1:ce:27:47:62:53:e2:66:b9:e5:d3:f7:53:60:9d:02:a3:
         06:a5:44:28:2d:43:32:02:8b:8c:75:15:d4:8c:27:e9:b8:c6:
         ca:0d:9b:b3:19:2a:3a:57:27:6e:70:ad:6a:67:81:61:32:37:
         87:a1:48:97:85:4a:26:a0:9a:4b:48:07:e1:5d:69:08:4c:bd:
         7c:1c:b7:4e:ce:35:9a:70:63:d5:cf:21:92:4f:56:a5:ae:b8:
         79:c0:c1:5c:0a:53:46:c5:6a:97:48:44:51:ed:19:12:af:7f:
         33:0b:16:a7:31:c6:8c:43:6c:6f:ff:a5:ec:a9:e9:34:23:42:
         2e:85:04:b5:9b:17:d2:db:e4:b8:fc:b6:10:89:82:8f:17:a6:
         8e:04:96:25:b2:b7:95:13:21:a1:54:27:fc:dc:d8:5e:3c:64:
         de:a4:4b:38:1d:c5:b7:76:57:5a:41:56:d7:72:b3:bc:dc:9e:
         94:89:aa:e9:8e:78:bd:ab:07:ee:ee:41:b0:b5:63:30:4d:92:
         a9:b1:96:32:8e:c3:a3:f9:93:1c:37:e3:55:52:7b:ad:f8:04:
         f7:2f:08:4d:62:97:dd:90:ca:7e:59:9e:f6:c2:e7:a6:76:81:
         16:0a:ca:0d:c2:b6:12:31:d3:b3:6a:4d:87:0d:8c:5f:c2:0f:
         53:c4:26:b6:29:41:5a:5a
-----BEGIN CERTIFICATE-----
MIIFSjCCAzKgAwIBAgIEEkgWNzANBgkqhkiG9w0BAQsFADAnMSUwIwYDVQQDDBxT
UksyX3NoYTI1Nl80MDk2XzY1NTM3X3YzX2NhMB4XDTIxMDgyNDE3MDYzOFoXDTMx
MDgyMjE3MDYzOFowKjEoMCYGA1UEAwwfSU1HMl8xX3NoYTI1Nl80MDk2XzY1NTM3
X3YzX3VzcjCCAiIwDQYJKoZIhvcNAQEBBQADggIPADCCAgoCggIBAN2SQBL2YtHM
e0zkekAGdYA/Yec7rwqsrsWfzRKXcvRlVgUSrF7vsdOwUZdMQXN9k4jQ0CGj8imG
66K8aJSeHEwsBh2peosLPFmhQEjHdGEZpGR1hKNFD6aGJBjTDpzrzHauwpYjfFjV
66OJzNfdyETjSF9cvv5Z5UL3I5Iy/6yMJmmleyaSEi8hUzP7BFZfVoPxexVh1S7K
5cjIGv5EKduvVihGdklVM5vL4m82M1rfNjucdXR5OwCXB028lXs++GnW4197kpgw
ApsjTf4i4HKBFisvRC58pftsnhpI8BECP02LGp5Uv4LePDOtzr7zSfWF9Fjm+CCK
JwykbyjdgzHGeDm/ZX8kte/qB89kXu1xRVBm5qlghrxKLnlFTjLnDP49cQ6gKPJO
pGqwkgDjKk8H7PjXgsGLCwxP5vgNCCnNdPC2w4isZCe/S0tev1cRseGVcghIL2ru
UEVh8Ylu9eGubZoAXl8eqoaBasscNHXyUQhDn0/0sIRA2b9oEAm7vHrmP7nhA7Il
lSYxmidDV02Emv5wcgZgcvQDc68X9o8Rw1gEWQOQqD9jfNA5l3gPchaUTuMxPEZS
d0Wy1ppfWFnu5jiduFbpHSAsdYgyGQutIIzmr2OWx3+/6ZqtVvqgK4iT2SfPj3H6
fxSX61u+KgExEsqDi8Emuo9malVi1dEZAgMBAAGjezB5MAkGA1UdEwQCMAAwLAYJ
YIZIAYb4QgENBB8WHU9wZW5TU0wgR2VuZXJhdGVkIENlcnRpZmljYXRlMB0GA1Ud
DgQWBBSj2qgo9PSW7aJ2+lBv0zQ3qXtWTTAfBgNVHSMEGDAWgBRO3F4f5wsEWGNF
WcoDCC31ent+JDANBgkqhkiG9w0BAQsFAAOCAgEApctxubn4MrI9KHoqc6fozRpB
cIV7N5HFVAFeQnHJ4RcJ5ep+D6yvQUxT2ymUaGBOcvUrOFxz/MiLzGEeBOPrOT4c
Fb3pf5rs0nfbMOJU/Eqasv1GCYRiD6Bf3wR4uqKtZYyQ6TYaCG59bG6fmAq7Q4lt
Qp+RBtarHXPcp81D5m4fcFkkTauIeOt+2M+0jefeXEPgDnPrHjfhEaJX/d0jh9mW
u80tFLELJsv1ueTXOTwGCGIwIGowUMTMr72r2JgS6F12aMV3KwMKqKpcy4XKT26k
yWcqSAWmtMmeZJ7QtIn1dtQknMDcEUKeZrihHNS+w1QvavGJAtig3hxdNOHOJ0di
U+JmueXT91NgnQKjBqVEKC1DMgKLjHUV1Iwn6bjGyg2bsxkqOlcnbnCtameBYTI3
h6FIl4VKJqCaS0gH4V1pCEy9fBy3Ts41mnBj1c8hkk9Wpa64ecDBXApTRsVql0hE
Ue0ZEq9/MwsWpzHGjENsb/+l7KnpNCNCLoUEtZsX0tvkuPy2EImCjxemjgSWJbK3
lRMhoVQn/NzYXjxk3qRLOB3Ft3ZXWkFW13KzvNyelImq6Y54vasH7u5BsLVjME2S
qbGWMo7Do/mTHDfjVVJ7rfgE9y8ITWKX3ZDKflme9sLnpnaBFgrKDcK2EjHTs2pN
hw2MX8IPU8QmtilBWlo=
-----END CERTIFICATE-----
