Certificate:
    Data:
        Version: 3 (0x2)
        Serial Number: 306714163 (0x12481633)
        Signature Algorithm: sha256WithRSAEncryption
        Issuer: CN=SRK1_sha256_4096_65537_v3_ca
        Validity
            Not Before: Aug 24 17:06:36 2021 GMT
            Not After : Aug 22 17:06:36 2031 GMT
        Subject: CN=CSF1_1_sha256_4096_65537_v3_usr
        Subject Public Key Info:
            Public Key Algorithm: rsaEncryption
                RSA Public-Key: (4096 bit)
                Modulus:
                    00:b9:05:d0:f4:ff:c6:a9:2a:6c:f8:7f:40:57:f0:
                    fa:11:fb:21:da:10:70:df:ca:33:77:77:7c:6d:b9:
                    5a:cd:bc:c5:75:13:ab:9d:74:f1:17:5f:40:35:52:
                    a1:4c:65:28:20:bf:27:ea:16:cc:d3:2d:85:02:b3:
                    52:d2:9a:43:a3:3d:71:5a:61:2c:a3:a3:fe:40:c7:
                    f8:97:97:f1:c3:18:1c:66:ff:ca:a8:b5:07:e6:c6:
                    d9:4a:cf:9e:c8:89:78:57:1b:77:51:de:27:de:0e:
                    c8:a1:22:66:61:94:bd:59:24:c1:47:b0:a6:ad:42:
                    6d:11:ca:41:6d:2d:4a:f7:cc:d5:59:37:73:22:cd:
                    66:b0:7e:49:ba:46:d3:cd:30:28:7c:33:82:0e:e3:
                    c7:1f:55:b2:22:10:a5:b2:2c:5b:3f:30:3c:95:ee:
                    bb:f7:ea:df:0d:a8:1e:c3:5c:2a:c7:bf:f5:2b:cf:
                    41:0b:53:7a:2d:27:a5:32:8b:09:3e:23:ad:40:69:
                    94:43:e5:48:48:a4:6a:86:a7:50:9f:e6:c4:a3:d9:
                    9c:c3:2e:cb:6f:87:00:21:af:ed:1f:5b:75:8e:45:
                    af:74:8a:0c:ed:c7:08:a3:a8:23:8d:4d:e1:07:f8:
                    1c:13:ea:af:d3:b1:80:99:a9:ab:a4:3c:38:1b:d9:
                    9a:8a:d4:09:fb:96:e0:ce:30:d6:a3:6e:d4:34:8b:
                    fa:d8:3b:d8:9e:a5:bb:6f:d1:b3:09:2e:1f:11:3b:
                    52:8a:99:91:a3:a6:df:08:e0:9e:1d:54:f6:4f:35:
                    66:b0:63:cd:cf:0f:83:65:e8:c9:9a:3b:04:5c:51:
                    16:63:b0:7c:64:a6:89:c4:5e:c5:8b:c8:44:9a:9c:
                    28:4b:47:97:c0:22:af:03:d3:20:48:a9:9d:ed:ed:
                    20:b6:6b:4a:5d:aa:da:c9:b9:1d:7e:2c:b6:46:90:
                    41:82:30:b2:0b:ac:0d:81:76:8b:0b:4c:f6:2f:e8:
                    3a:a7:75:1d:7b:3b:47:00:39:ed:02:9b:db:61:a2:
                    ba:2a:8d:85:33:e8:e6:22:c3:b9:e1:bc:be:1f:31:
                    70:3b:11:0d:72:d7:f7:fd:c7:bd:bf:77:8c:f0:6b:
                    b6:03:25:0c:80:da:f0:eb:ac:f6:f8:4a:7e:3f:16:
                    f6:17:25:4e:df:e1:3f:76:db:b2:dd:62:b1:00:2e:
                    f0:e5:ec:d7:0f:0e:85:4d:7a:74:b6:fb:0c:6d:e7:
                    14:0f:e2:ca:18:90:b6:b4:55:b2:12:af:17:5c:c2:
                    02:2d:5f:f1:a6:bd:bc:6c:93:7c:c7:84:e1:82:2d:
                    5b:37:76:cd:1b:aa:38:58:ae:78:6c:98:c2:2c:84:
                    ee:c6:a9
                Exponent: 65537 (0x10001)
        X509v3 extensions:
            X509v3 Basic Constraints: 
                CA:FALSE
            Netscape Comment: 
                OpenSSL Generated Certificate
            X509v3 Subject Key Identifier: 
                34:C0:7C:CE:BD:60:B9:00:BF:26:DE:66:A6:07:5B:33:9A:42:42:88
            X509v3 Authority Key Identifier: 
                keyid:32:39:55:CF:3E:B7:D4:0B:39:F4:9C:7C:40:ED:89:03:58:64:F0:70

    Signature Algorithm: sha256WithRSAEncryption
         5a:74:1f:ec:5d:e7:31:e5:7d:54:52:6e:ec:3c:a6:2d:94:50:
         10:ce:30:29:de:28:ba:dc:ee:63:0e:02:4e:89:f9:20:d7:ec:
         74:46:b2:7e:d7:cf:1d:9a:7f:ce:55:3d:79:a8:9a:3f:ca:f5:
         d9:37:04:c8:7e:02:99:07:f3:cc:5f:2c:45:76:98:43:f2:95:
         a7:6e:2c:0b:04:c5:6b:88:1e:88:fa:5e:81:52:e4:ac:7d:ea:
         cd:32:a4:51:03:f1:07:77:16:df:c3:a0:7b:da:86:49:c0:e2:
         51:91:5f:20:55:cc:a4:08:8a:ca:0f:fc:5f:6b:fa:af:00:46:
         a5:4c:3d:63:ef:45:1b:91:da:40:04:18:e8:75:40:db:d3:99:
         27:1f:e8:25:fb:87:39:8c:bf:30:b4:f8:4a:1b:ab:f1:30:45:
         b0:3d:46:ac:9d:1f:88:0c:34:0d:25:90:8d:86:b0:9f:7e:c9:
         d0:01:83:85:9e:c1:f4:d1:94:14:76:c4:b7:5b:3d:3b:5a:09:
         ec:ee:3f:06:6d:ce:45:45:12:f0:c3:34:5f:e2:3c:1a:8e:ea:
         0e:5b:88:d1:d3:7c:b5:5e:24:8f:db:b3:a1:09:7a:03:75:e8:
         ff:9a:68:b4:22:2c:e0:72:e8:6b:96:1a:01:2b:d9:24:9a:77:
         62:97:25:3d:bb:d4:0e:26:b7:05:c3:79:b8:b3:04:ef:19:a5:
         df:28:b8:6d:04:72:d5:3c:be:bd:7a:92:e9:f3:ce:36:7a:54:
         71:8a:bf:0c:7a:2b:87:bd:55:40:f2:6a:39:ac:08:9b:6b:a7:
         40:d3:f5:9c:4d:93:cf:6d:3e:34:61:5b:8d:b8:4a:b1:67:83:
         8d:97:6b:96:13:80:1c:7e:28:aa:af:93:05:75:14:89:bd:83:
         42:ab:57:7c:49:52:fe:5e:30:33:6d:c7:fd:39:75:60:39:2e:
         b1:76:1c:89:12:07:59:f5:2a:e7:da:1e:8b:ec:50:54:50:47:
         8b:16:fa:17:63:b0:06:17:24:b8:79:44:c7:e2:50:c2:06:8a:
         54:19:55:2d:d6:04:6f:bc:d0:eb:3c:1a:85:e4:f5:87:e4:c5:
         4c:ba:89:4a:d8:3b:57:26:85:1d:12:4b:f2:3c:ae:3a:ff:04:
         04:43:d1:bc:84:17:41:91:1b:69:2a:af:2f:99:59:e9:b4:6a:
         35:f9:60:ae:c5:14:fc:e2:8e:10:64:4d:b5:14:55:b7:64:b7:
         c8:09:fd:33:23:57:72:62:cb:de:a9:59:35:2e:07:fe:21:eb:
         4b:04:6a:39:ce:80:85:52:c1:18:90:5c:68:32:c3:da:ac:1c:
         d0:a5:ef:cb:0c:37:02:ab
-----BEGIN CERTIFICATE-----
MIIFSjCCAzKgAwIBAgIEEkgWMzANBgkqhkiG9w0BAQsFADAnMSUwIwYDVQQDDBxT
UksxX3NoYTI1Nl80MDk2XzY1NTM3X3YzX2NhMB4XDTIxMDgyNDE3MDYzNloXDTMx
MDgyMjE3MDYzNlowKjEoMCYGA1UEAwwfQ1NGMV8xX3NoYTI1Nl80MDk2XzY1NTM3
X3YzX3VzcjCCAiIwDQYJKoZIhvcNAQEBBQADggIPADCCAgoCggIBALkF0PT/xqkq
bPh/QFfw+hH7IdoQcN/KM3d3fG25Ws28xXUTq5108RdfQDVSoUxlKCC/J+oWzNMt
hQKzUtKaQ6M9cVphLKOj/kDH+JeX8cMYHGb/yqi1B+bG2UrPnsiJeFcbd1HeJ94O
yKEiZmGUvVkkwUewpq1CbRHKQW0tSvfM1Vk3cyLNZrB+SbpG080wKHwzgg7jxx9V
siIQpbIsWz8wPJXuu/fq3w2oHsNcKse/9SvPQQtTei0npTKLCT4jrUBplEPlSEik
aoanUJ/mxKPZnMMuy2+HACGv7R9bdY5Fr3SKDO3HCKOoI41N4Qf4HBPqr9OxgJmp
q6Q8OBvZmorUCfuW4M4w1qNu1DSL+tg72J6lu2/RswkuHxE7UoqZkaOm3wjgnh1U
9k81ZrBjzc8Pg2XoyZo7BFxRFmOwfGSmicRexYvIRJqcKEtHl8AirwPTIEipne3t
ILZrSl2q2sm5HX4stkaQQYIwsgusDYF2iwtM9i/oOqd1HXs7RwA57QKb22GiuiqN
hTPo5iLDueG8vh8xcDsRDXLX9/3Hvb93jPBrtgMlDIDa8Ous9vhKfj8W9hclTt/h
P3bbst1isQAu8OXs1w8OhU16dLb7DG3nFA/iyhiQtrRVshKvF1zCAi1f8aa9vGyT
fMeE4YItWzd2zRuqOFiueGyYwiyE7sapAgMBAAGjezB5MAkGA1UdEwQCMAAwLAYJ
YIZIAYb4QgENBB8WHU9wZW5TU0wgR2VuZXJhdGVkIENlcnRpZmljYXRlMB0GA1Ud
DgQWBBQ0wHzOvWC5AL8m3mamB1szmkJCiDAfBgNVHSMEGDAWgBQyOVXPPrfUCzn0
nHxA7YkDWGTwcDANBgkqhkiG9w0BAQsFAAOCAgEAWnQf7F3nMeV9VFJu7DymLZRQ
EM4wKd4outzuYw4CTon5INfsdEayftfPHZp/zlU9eaiaP8r12TcEyH4CmQfzzF8s
RXaYQ/KVp24sCwTFa4geiPpegVLkrH3qzTKkUQPxB3cW38Oge9qGScDiUZFfIFXM
pAiKyg/8X2v6rwBGpUw9Y+9FG5HaQAQY6HVA29OZJx/oJfuHOYy/MLT4Shur8TBF
sD1GrJ0fiAw0DSWQjYawn37J0AGDhZ7B9NGUFHbEt1s9O1oJ7O4/Bm3ORUUS8MM0
X+I8Go7qDluI0dN8tV4kj9uzoQl6A3Xo/5potCIs4HLoa5YaASvZJJp3YpclPbvU
Dia3BcN5uLME7xml3yi4bQRy1Ty+vXqS6fPONnpUcYq/DHorh71VQPJqOawIm2un
QNP1nE2Tz20+NGFbjbhKsWeDjZdrlhOAHH4oqq+TBXUUib2DQqtXfElS/l4wM23H
/Tl1YDkusXYciRIHWfUq59oei+xQVFBHixb6F2OwBhckuHlEx+JQwgaKVBlVLdYE
b7zQ6zwaheT1h+TFTLqJStg7VyaFHRJL8jyuOv8EBEPRvIQXQZEbaSqvL5lZ6bRq
NflgrsUU/OKOEGRNtRRVt2S3yAn9MyNXcmLL3qlZNS4H/iHrSwRqOc6AhVLBGJBc
aDLD2qwc0KXvyww3Aqs=
-----END CERTIFICATE-----
