Certificate:
    Data:
        Version: 3 (0x2)
        Serial Number: 306714166 (0x12481636)
        Signature Algorithm: sha256WithRSAEncryption
        Issuer: CN=SRK2_sha256_4096_65537_v3_ca
        Validity
            Not Before: Aug 24 17:06:37 2021 GMT
            Not After : Aug 22 17:06:37 2031 GMT
        Subject: CN=CSF2_1_sha256_4096_65537_v3_usr
        Subject Public Key Info:
            Public Key Algorithm: rsaEncryption
                RSA Public-Key: (4096 bit)
                Modulus:
                    00:a9:19:af:aa:42:74:66:28:43:43:76:4c:e3:f1:
                    8a:3e:a4:71:5b:38:1d:51:e8:d6:e8:f7:5c:98:68:
                    2a:0f:11:f6:8e:ae:9b:cc:d3:f6:39:a2:2c:09:99:
                    9c:91:d3:b2:5a:06:76:0c:d3:0b:f9:88:49:62:bf:
                    e4:dd:51:8a:9d:fa:ce:1d:ae:8f:bd:29:4c:28:bc:
                    2d:24:08:5b:32:b0:75:5b:f9:9d:7c:42:51:47:5d:
                    b3:22:b8:7d:bc:8b:09:24:cf:2a:11:4b:d0:34:6d:
                    58:14:2e:f5:f6:03:1e:ab:e7:32:a2:81:33:c0:26:
                    86:61:7e:88:d6:3b:fd:8f:00:17:bd:41:7b:91:4a:
                    81:66:01:dc:27:d0:e3:de:de:85:6c:80:f5:93:6a:
                    cb:b3:47:b5:0d:da:ae:c8:4b:68:d1:8d:a6:90:dd:
                    14:c8:6a:ec:b7:95:16:db:45:f9:f8:65:69:7c:28:
                    81:cd:85:c9:f2:1d:4d:04:28:aa:af:39:26:21:34:
                    78:ed:eb:04:ba:61:e5:d3:f7:da:71:ab:99:fd:f1:
                    5d:d1:4e:b6:1b:51:6e:1d:1d:73:03:8a:d8:46:90:
                    e9:dd:37:7a:34:62:99:40:7b:59:dc:6c:ef:23:49:
                    d3:a7:90:a2:ad:b9:f7:7c:55:c7:c5:e8:2e:2e:4c:
                    f9:c8:c3:63:d7:c3:2e:42:fc:a6:b8:3a:49:ec:32:
                    1c:e7:34:d9:a2:b6:68:70:5a:32:68:75:0c:5d:4e:
                    38:c6:6d:b5:c6:91:db:ee:1b:ad:b4:53:77:a5:e9:
                    3b:b2:d4:b5:87:42:c5:8e:24:45:c2:86:99:15:ad:
                    8d:bc:3d:ae:9f:20:5e:09:77:f9:39:a8:ff:20:de:
                    6e:d6:6c:e2:e9:5c:ac:65:64:5f:71:c2:6c:e8:b5:
                    79:8c:f2:04:4f:3d:21:9a:de:93:45:15:76:56:dc:
                    2b:2b:7a:60:3c:08:17:41:6c:91:f5:a4:ee:07:67:
                    c6:58:35:d0:20:54:c9:a8:5b:d4:9e:2e:ba:1e:1e:
                    f8:f9:bc:53:e1:b2:4d:ae:c2:3d:e7:75:9c:18:95:
                    96:bc:53:dc:99:c0:01:d4:d9:95:2f:db:2b:3b:82:
                    cc:6b:90:bf:92:be:19:6b:10:c7:33:3d:40:29:9c:
                    b8:4c:15:2b:bc:21:a3:44:47:ce:29:8d:dc:35:44:
                    44:41:05:c9:fa:c0:db:04:02:7e:1f:50:b9:9e:e0:
                    06:17:6f:ef:00:92:5b:fa:48:6e:94:54:04:eb:8f:
                    74:ff:b9:70:00:b5:b1:5a:ee:e1:0b:a1:70:03:91:
                    98:0a:7d:9b:c5:19:7c:48:59:a1:3f:82:cd:b3:1b:
                    45:ae:eb
                Exponent: 65537 (0x10001)
        X509v3 extensions:
            X509v3 Basic Constraints: 
                CA:FALSE
            Netscape Comment: 
                OpenSSL Generated Certificate
            X509v3 Subject Key Identifier: 
                9E:B4:80:D4:B2:70:A7:FB:C9:4C:96:27:D8:D5:1E:CF:3B:33:F8:9F
            X509v3 Authority Key Identifier: 
                keyid:4E:DC:5E:1F:E7:0B:04:58:63:45:59:CA:03:08:2D:F5:7A:7B:7E:24

    Signature Algorithm: sha256WithRSAEncryption
         34:66:d9:81:fc:d4:69:9a:e5:06:50:6b:30:26:ed:3f:f2:38:
         95:94:2f:96:e5:52:a3:49:cd:e0:f0:86:bc:a5:c8:5d:78:6a:
         16:f5:75:b6:02:13:45:85:61:6c:65:1a:8b:19:5d:36:68:fe:
         54:6e:e6:d7:c4:0d:1e:38:56:11:3a:fb:36:da:d7:dd:53:84:
         05:2d:8f:0d:1e:dc:4d:bd:bd:a3:46:dd:ea:4d:f7:52:08:ff:
         ec:1d:7b:46:e9:92:58:7d:71:c2:72:b1:5d:f7:60:12:1b:b4:
         56:76:80:34:52:b2:70:b6:07:70:f7:0b:07:92:f1:ed:9e:75:
         1d:5a:3d:9e:0e:f7:84:53:df:19:11:49:6e:3d:92:f4:93:be:
         46:39:7e:fa:8e:51:16:bd:65:e3:05:17:90:01:ab:d2:81:b8:
         4b:3d:e8:61:de:b7:78:59:0f:c8:17:d5:8c:22:cd:37:8f:4a:
         f9:73:0e:d6:2b:67:65:c4:e4:e1:27:f7:fb:da:bb:33:d8:ec:
         17:f0:61:03:92:39:91:c4:53:fc:1d:2e:dd:1e:2a:10:d6:d0:
         42:bd:54:57:d9:3b:e3:37:10:a4:5f:3a:0c:23:3d:f7:15:b6:
         6d:73:a2:cb:b9:d6:d4:fe:48:4a:4d:6b:a1:cb:ea:c8:5c:f9:
         5d:b8:6e:73:1c:70:71:4a:c8:63:8b:18:16:b1:f2:b6:13:fc:
         60:60:42:b3:2c:c4:7d:0f:62:fd:ff:b4:9d:27:a9:86:67:cc:
         b9:e1:d7:e6:0e:70:b9:40:4e:0f:58:e4:8e:4e:f3:26:cb:82:
         d2:ec:2b:e8:c8:ec:42:bf:52:c5:54:eb:fd:c9:ef:09:1b:df:
         bb:6f:2e:06:01:62:a8:12:f9:42:c9:fc:40:06:35:60:e6:4b:
         f7:3d:6d:2d:ab:27:37:94:dc:ca:8a:ea:ed:a5:53:f5:ee:c3:
         50:4f:d2:ea:06:50:b8:60:3f:88:75:da:04:3a:e8:58:7d:08:
         c2:bb:2f:c9:70:44:02:cc:e7:ca:e7:4b:f0:50:3f:bf:42:80:
         12:5a:f3:a1:46:14:97:95:dc:84:68:18:60:80:6b:a0:42:6f:
         65:23:52:b2:e8:8d:e9:03:d0:a9:e9:5c:ae:4f:a6:67:6e:09:
         4a:95:81:29:54:33:c8:a3:f1:69:b8:62:88:b5:7c:b3:f4:b0:
         b7:9c:1f:f6:e1:e1:f3:54:4a:05:c3:3b:55:d3:ba:0e:5b:20:
         cc:27:98:d9:57:74:b7:6d:6b:97:e0:39:2b:65:86:9e:ce:7f:
         81:82:0d:ed:1e:85:20:cb:e0:79:5e:b5:1b:7a:eb:7b:66:4b:
         57:d1:dd:e9:a0:7a:a1:5b
-----BEGIN CERTIFICATE-----
MIIFSjCCAzKgAwIBAgIEEkgWNjANBgkqhkiG9w0BAQsFADAnMSUwIwYDVQQDDBxT
UksyX3NoYTI1Nl80MDk2XzY1NTM3X3YzX2NhMB4XDTIxMDgyNDE3MDYzN1oXDTMx
MDgyMjE3MDYzN1owKjEoMCYGA1UEAwwfQ1NGMl8xX3NoYTI1Nl80MDk2XzY1NTM3
X3YzX3VzcjCCAiIwDQYJKoZIhvcNAQEBBQADggIPADCCAgoCggIBAKkZr6pCdGYo
Q0N2TOPxij6kcVs4HVHo1uj3XJhoKg8R9o6um8zT9jmiLAmZnJHTsloGdgzTC/mI
SWK/5N1Rip36zh2uj70pTCi8LSQIWzKwdVv5nXxCUUddsyK4fbyLCSTPKhFL0DRt
WBQu9fYDHqvnMqKBM8AmhmF+iNY7/Y8AF71Be5FKgWYB3CfQ497ehWyA9ZNqy7NH
tQ3arshLaNGNppDdFMhq7LeVFttF+fhlaXwogc2FyfIdTQQoqq85JiE0eO3rBLph
5dP32nGrmf3xXdFOthtRbh0dcwOK2EaQ6d03ejRimUB7Wdxs7yNJ06eQoq2593xV
x8XoLi5M+cjDY9fDLkL8prg6SewyHOc02aK2aHBaMmh1DF1OOMZttcaR2+4brbRT
d6XpO7LUtYdCxY4kRcKGmRWtjbw9rp8gXgl3+Tmo/yDebtZs4ulcrGVkX3HCbOi1
eYzyBE89IZrek0UVdlbcKyt6YDwIF0FskfWk7gdnxlg10CBUyahb1J4uuh4e+Pm8
U+GyTa7CPed1nBiVlrxT3JnAAdTZlS/bKzuCzGuQv5K+GWsQxzM9QCmcuEwVK7wh
o0RHzimN3DVEREEFyfrA2wQCfh9QuZ7gBhdv7wCSW/pIbpRUBOuPdP+5cAC1sVru
4QuhcAORmAp9m8UZfEhZoT+CzbMbRa7rAgMBAAGjezB5MAkGA1UdEwQCMAAwLAYJ
YIZIAYb4QgENBB8WHU9wZW5TU0wgR2VuZXJhdGVkIENlcnRpZmljYXRlMB0GA1Ud
DgQWBBSetIDUsnCn+8lMlifY1R7POzP4nzAfBgNVHSMEGDAWgBRO3F4f5wsEWGNF
WcoDCC31ent+JDANBgkqhkiG9w0BAQsFAAOCAgEANGbZgfzUaZrlBlBrMCbtP/I4
lZQvluVSo0nN4PCGvKXIXXhqFvV1tgITRYVhbGUaixldNmj+VG7m18QNHjhWETr7
NtrX3VOEBS2PDR7cTb29o0bd6k33Ugj/7B17RumSWH1xwnKxXfdgEhu0VnaANFKy
cLYHcPcLB5Lx7Z51HVo9ng73hFPfGRFJbj2S9JO+Rjl++o5RFr1l4wUXkAGr0oG4
Sz3oYd63eFkPyBfVjCLNN49K+XMO1itnZcTk4Sf3+9q7M9jsF/BhA5I5kcRT/B0u
3R4qENbQQr1UV9k74zcQpF86DCM99xW2bXOiy7nW1P5ISk1rocvqyFz5Xbhucxxw
cUrIY4sYFrHythP8YGBCsyzEfQ9i/f+0nSephmfMueHX5g5wuUBOD1jkjk7zJsuC
0uwr6MjsQr9SxVTr/cnvCRvfu28uBgFiqBL5Qsn8QAY1YOZL9z1tLasnN5Tcyorq
7aVT9e7DUE/S6gZQuGA/iHXaBDroWH0IwrsvyXBEAsznyudL8FA/v0KAElrzoUYU
l5XchGgYYIBroEJvZSNSsuiN6QPQqelcrk+mZ24JSpWBKVQzyKPxabhiiLV8s/Sw
t5wf9uHh81RKBcM7VdO6DlsgzCeY2Vd0t21rl+A5K2WGns5/gYIN7R6FIMvgeV61
G3rre2ZLV9Hd6aB6oVs=
-----END CERTIFICATE-----
