Certificate:
    Data:
        Version: 3 (0x2)
        Serial Number: 306714164 (0x12481634)
        Signature Algorithm: sha256WithRSAEncryption
        Issuer: CN=SRK1_sha256_4096_65537_v3_ca
        Validity
            Not Before: Aug 24 17:06:36 2021 GMT
            Not After : Aug 22 17:06:36 2031 GMT
        Subject: CN=IMG1_1_sha256_4096_65537_v3_usr
        Subject Public Key Info:
            Public Key Algorithm: rsaEncryption
                RSA Public-Key: (4096 bit)
                Modulus:
                    00:d7:79:94:42:17:d6:6c:9a:8a:65:53:eb:9e:66:
                    0b:f7:a5:aa:71:93:a1:ed:5c:bf:cb:88:b0:99:d6:
                    e4:ae:ec:89:1e:aa:0e:0a:0f:ed:00:1e:2c:a6:62:
                    a3:6f:d3:4c:20:98:9a:6b:25:f0:e9:c5:0a:74:be:
                    ba:b1:4a:dc:fe:b1:2a:3a:02:ed:92:84:f6:8e:8f:
                    c7:f2:cd:e0:27:ac:15:58:9e:8b:60:77:2d:79:ae:
                    0c:aa:f6:8c:8f:72:8a:90:02:48:1e:5a:8c:58:93:
                    9d:b3:6f:ef:bb:5e:f0:9a:6c:cc:10:67:a0:b5:fa:
                    43:8d:6b:1b:fe:f2:e5:b3:d6:82:a6:fd:b9:20:82:
                    d1:cd:e8:ae:d9:23:32:0a:e0:4e:14:3f:30:df:c6:
                    ca:77:39:02:fa:bc:38:d2:37:ad:63:2b:24:fc:b5:
                    16:05:a1:cb:d7:1e:a3:d3:fe:1d:27:c2:50:69:60:
                    cb:d2:85:57:d3:4e:53:d4:14:f8:cf:97:7d:a2:e8:
                    23:62:c9:17:32:8b:b2:90:c0:84:3e:89:5d:97:86:
                    43:48:00:32:2b:c1:56:9e:07:81:85:5c:de:06:ad:
                    b4:65:f6:82:ce:b2:53:d9:8d:0d:0e:fa:cf:8e:9e:
                    4e:63:3f:02:fb:a3:d2:cc:63:51:ea:fe:d2:4d:e1:
                    69:87:96:41:e7:9b:e8:ac:4a:73:07:48:8f:9d:0b:
                    18:95:d0:c8:45:27:35:d7:31:3e:6f:63:d4:ab:28:
                    8e:f4:af:f9:dc:61:7d:5f:d3:cf:58:52:c8:4a:36:
                    ef:2a:72:99:a7:26:bb:52:1f:93:41:68:ec:c5:a9:
                    2d:3d:cc:bc:57:31:6c:9b:1e:92:18:0d:66:40:1f:
                    f4:68:0e:19:e3:7e:3a:7e:a6:96:82:2f:28:d1:3e:
                    06:a6:92:ff:40:64:cc:00:46:24:f8:22:1e:2e:84:
                    d8:f7:cd:ce:13:5f:2e:63:ec:c7:04:41:ed:39:ef:
                    45:3d:bf:26:0a:2d:e9:79:a2:c1:dc:ae:48:3a:e9:
                    70:74:13:a1:8d:66:d1:c7:54:44:05:59:b7:b0:cd:
                    97:b2:4d:fa:28:51:38:d2:7e:8a:70:bf:f9:82:99:
                    a3:8c:50:51:53:3a:40:0c:7e:95:21:c9:95:da:26:
                    76:f7:b2:79:e5:27:65:1c:6a:fe:80:74:2e:51:09:
                    84:17:9a:5f:d4:a3:39:50:54:e5:49:42:a2:3b:92:
                    24:10:72:fa:64:0a:fd:9a:aa:05:f8:3a:e1:ff:2d:
                    b0:ac:05:14:59:54:52:c3:49:e9:48:7a:cc:ad:65:
                    0b:69:55:84:0c:71:12:3e:c8:33:83:cd:a1:93:37:
                    e5:0b:cb
                Exponent: 65537 (0x10001)
        X509v3 extensions:
            X509v3 Basic Constraints: 
                CA:FALSE
            Netscape Comment: 
                OpenSSL Generated Certificate
            X509v3 Subject Key Identifier: 
                EB:D6:9D:A0:44:20:96:91:F4:15:2E:0C:93:79:56:74:DE:82:E4:08
            X509v3 Authority Key Identifier: 
                keyid:32:39:55:CF:3E:B7:D4:0B:39:F4:9C:7C:40:ED:89:03:58:64:F0:70

    Signature Algorithm: sha256WithRSAEncryption
         ab:30:3c:e5:dc:62:03:a3:1c:ba:bc:f2:ce:da:cd:15:ea:a2:
         46:b1:ee:dc:32:bd:a9:d6:5f:7b:58:9d:26:d4:03:6f:a3:7b:
         52:50:5b:c3:6e:d2:b8:38:b3:61:d4:ed:c6:37:33:d9:46:1e:
         05:6f:98:60:10:f7:25:ef:3e:9b:64:71:50:be:1a:32:6b:38:
         68:66:c4:ee:67:79:fd:76:a1:c5:ef:1a:0a:5f:f8:8e:77:d6:
         66:d8:02:c1:f3:fa:3d:5f:bf:9f:36:7e:f8:15:9d:33:a8:d7:
         1d:10:c6:97:a8:20:39:30:70:d0:16:d9:8b:4d:c1:e1:9a:90:
         2b:ce:46:42:65:fd:18:73:66:c1:ea:37:6b:ee:5c:25:8a:b8:
         97:bb:1f:dd:f3:0c:16:16:19:3a:14:a3:78:aa:e9:16:69:7e:
         a0:80:f4:44:66:3a:b9:23:06:4e:a4:1c:78:08:06:1a:1a:72:
         f3:2a:52:fd:90:84:b2:1f:42:df:1b:77:a1:5c:5b:59:8e:32:
         be:1b:92:70:3a:ff:98:35:a0:85:44:54:97:b1:11:fb:81:0c:
         77:10:09:31:18:8f:ea:06:63:9a:1e:f4:06:6c:72:cd:3d:a8:
         2b:36:eb:73:68:6e:a0:a8:da:6e:16:90:ca:f7:7f:ae:2a:65:
         f3:79:ef:f2:67:6a:e8:3a:58:dd:5d:ba:d0:f2:ae:68:3d:5a:
         44:ab:32:5c:b8:0f:73:da:26:a8:c9:f8:fe:e5:bf:d5:67:ce:
         0f:ba:9b:eb:e9:c9:8c:fd:15:96:76:13:e0:b6:35:30:02:e8:
         6f:c3:75:9e:5c:84:29:dc:5b:7d:ef:fc:12:95:f3:fe:07:98:
         12:8f:bb:49:4a:10:81:d8:fb:f1:48:29:db:28:37:a7:c7:c6:
         a8:85:ea:40:03:d5:13:f5:8f:49:bf:9a:62:c0:8c:15:45:ba:
         34:05:ae:ed:6d:2d:d2:c6:b0:1d:c4:4c:48:e3:02:7b:34:b8:
         1c:dc:0f:ac:d3:4a:5d:85:4a:53:a5:37:34:bd:e1:75:54:32:
         6e:a9:89:ee:13:90:5c:6e:b4:84:5e:0c:84:dc:0d:74:45:5f:
         fe:9c:24:57:ed:e7:bc:6a:5d:60:7c:56:a6:5f:25:5c:06:99:
         fa:26:c0:1d:ac:9d:a6:58:51:6e:c3:20:5d:74:aa:01:3c:26:
         0e:93:a5:55:f8:cb:3f:c6:9b:b9:3b:86:7b:a5:67:a7:ee:da:
         95:cd:41:5c:71:95:b0:c7:07:8f:bc:93:3a:8c:e5:8a:89:ea:
         59:6d:d0:a0:37:21:69:07:15:71:f2:c1:0f:4e:56:67:2b:78:
         2c:91:df:9c:8f:40:92:2f
-----BEGIN CERTIFICATE-----
MIIFSjCCAzKgAwIBAgIEEkgWNDANBgkqhkiG9w0BAQsFADAnMSUwIwYDVQQDDBxT
UksxX3NoYTI1Nl80MDk2XzY1NTM3X3YzX2NhMB4XDTIxMDgyNDE3MDYzNloXDTMx
MDgyMjE3MDYzNlowKjEoMCYGA1UEAwwfSU1HMV8xX3NoYTI1Nl80MDk2XzY1NTM3
X3YzX3VzcjCCAiIwDQYJKoZIhvcNAQEBBQADggIPADCCAgoCggIBANd5lEIX1mya
imVT655mC/elqnGToe1cv8uIsJnW5K7siR6qDgoP7QAeLKZio2/TTCCYmmsl8OnF
CnS+urFK3P6xKjoC7ZKE9o6Px/LN4CesFViei2B3LXmuDKr2jI9yipACSB5ajFiT
nbNv77te8JpszBBnoLX6Q41rG/7y5bPWgqb9uSCC0c3ortkjMgrgThQ/MN/Gync5
Avq8ONI3rWMrJPy1FgWhy9ceo9P+HSfCUGlgy9KFV9NOU9QU+M+XfaLoI2LJFzKL
spDAhD6JXZeGQ0gAMivBVp4HgYVc3gattGX2gs6yU9mNDQ76z46eTmM/Avuj0sxj
Uer+0k3haYeWQeeb6KxKcwdIj50LGJXQyEUnNdcxPm9j1KsojvSv+dxhfV/Tz1hS
yEo27ypymacmu1Ifk0Fo7MWpLT3MvFcxbJsekhgNZkAf9GgOGeN+On6mloIvKNE+
BqaS/0BkzABGJPgiHi6E2PfNzhNfLmPsxwRB7TnvRT2/Jgot6XmiwdyuSDrpcHQT
oY1m0cdURAVZt7DNl7JN+ihRONJ+inC/+YKZo4xQUVM6QAx+lSHJldomdveyeeUn
ZRxq/oB0LlEJhBeaX9SjOVBU5UlCojuSJBBy+mQK/ZqqBfg64f8tsKwFFFlUUsNJ
6Uh6zK1lC2lVhAxxEj7IM4PNoZM35QvLAgMBAAGjezB5MAkGA1UdEwQCMAAwLAYJ
YIZIAYb4QgENBB8WHU9wZW5TU0wgR2VuZXJhdGVkIENlcnRpZmljYXRlMB0GA1Ud
DgQWBBTr1p2gRCCWkfQVLgyTeVZ03oLkCDAfBgNVHSMEGDAWgBQyOVXPPrfUCzn0
nHxA7YkDWGTwcDANBgkqhkiG9w0BAQsFAAOCAgEAqzA85dxiA6McurzyztrNFeqi
RrHu3DK9qdZfe1idJtQDb6N7UlBbw27SuDizYdTtxjcz2UYeBW+YYBD3Je8+m2Rx
UL4aMms4aGbE7md5/Xahxe8aCl/4jnfWZtgCwfP6PV+/nzZ++BWdM6jXHRDGl6gg
OTBw0BbZi03B4ZqQK85GQmX9GHNmweo3a+5cJYq4l7sf3fMMFhYZOhSjeKrpFml+
oID0RGY6uSMGTqQceAgGGhpy8ypS/ZCEsh9C3xt3oVxbWY4yvhuScDr/mDWghURU
l7ER+4EMdxAJMRiP6gZjmh70BmxyzT2oKzbrc2huoKjabhaQyvd/ripl83nv8mdq
6DpY3V260PKuaD1aRKsyXLgPc9omqMn4/uW/1WfOD7qb6+nJjP0VlnYT4LY1MALo
b8N1nlyEKdxbfe/8EpXz/geYEo+7SUoQgdj78Ugp2yg3p8fGqIXqQAPVE/WPSb+a
YsCMFUW6NAWu7W0t0sawHcRMSOMCezS4HNwPrNNKXYVKU6U3NL3hdVQybqmJ7hOQ
XG60hF4MhNwNdEVf/pwkV+3nvGpdYHxWpl8lXAaZ+ibAHaydplhRbsMgXXSqATwm
DpOlVfjLP8abuTuGe6Vnp+7alc1BXHGVsMcHj7yTOozlionqWW3QoDchaQcVcfLB
D05WZyt4LJHfnI9Aki8=
-----END CERTIFICATE-----
