Certificate:
    Data:
        Version: 3 (0x2)
        Serial Number: 306714169 (0x12481639)
        Signature Algorithm: sha256WithRSAEncryption
        Issuer: CN=SRK3_sha256_4096_65537_v3_ca
        Validity
            Not Before: Aug 24 17:06:39 2021 GMT
            Not After : Aug 22 17:06:39 2031 GMT
        Subject: CN=CSF3_1_sha256_4096_65537_v3_usr
        Subject Public Key Info:
            Public Key Algorithm: rsaEncryption
                RSA Public-Key: (4096 bit)
                Modulus:
                    00:f2:32:f2:cb:47:bc:28:1f:84:8f:8a:3f:1c:82:
                    42:53:e6:35:46:f8:97:d3:cd:5c:72:d8:7d:e0:45:
                    5f:20:cf:fa:b6:56:d1:59:db:fe:ff:01:09:f5:97:
                    98:2a:34:a9:b0:4b:44:b6:a4:fb:c5:c3:fe:90:00:
                    92:3c:09:47:2e:93:c8:40:23:00:0c:a8:a6:7e:fd:
                    57:9a:16:6b:5c:ab:a2:23:76:17:13:60:96:50:92:
                    e8:43:2a:e6:76:bc:66:60:18:39:8b:c8:22:24:db:
                    86:a1:36:96:72:5a:04:15:ae:1a:c4:2e:1b:99:d2:
                    12:79:7a:66:67:a5:86:2e:b9:9d:12:c4:70:6d:ed:
                    43:35:83:e8:3f:35:77:e1:5a:98:ba:d0:25:3d:94:
                    60:2c:7e:33:61:d2:c4:9f:0f:61:9b:95:ae:58:22:
                    2d:7c:79:c4:d9:59:1a:30:7f:da:10:6a:fe:37:cf:
                    ab:ea:6e:67:15:b1:f9:8a:ce:4b:79:20:f6:62:93:
                    7d:64:c4:7d:a9:6a:5b:b8:38:9a:5e:ca:36:7f:17:
                    1e:2b:4d:c1:de:f2:4e:ce:97:a0:c3:64:01:ce:98:
                    e1:30:2e:b2:a5:f4:99:8c:dd:5d:90:aa:2e:cf:2c:
                    47:e3:82:42:e1:39:e1:e2:79:85:63:79:a1:41:d3:
                    7d:6f:d0:d0:ca:09:ee:b0:d3:cc:c9:4c:ad:fd:0a:
                    2e:9a:64:20:a7:e1:d2:56:80:09:b5:ff:e4:4a:a7:
                    7d:dc:7a:58:e6:b8:be:67:36:c3:fe:3e:f1:f0:f6:
                    b4:01:a8:58:34:1e:50:68:99:40:18:fa:18:e3:77:
                    ac:66:1b:35:b5:1e:63:e0:93:98:11:1f:84:63:66:
                    89:36:67:03:e6:70:98:ab:7c:ce:84:05:0c:64:68:
                    dd:ed:ba:e5:96:8e:e5:17:6d:5f:54:e1:9e:8d:69:
                    d9:bf:85:40:42:04:e4:dd:85:72:fa:f7:99:3f:33:
                    e7:f2:2a:94:f7:04:2a:0e:28:31:d0:24:75:45:57:
                    fe:c6:20:b0:9e:31:a6:76:51:3b:7a:20:62:45:b2:
                    e8:e6:c8:6b:f8:62:07:ac:58:64:5d:0e:f9:50:b5:
                    3a:de:05:76:a3:e3:37:2b:d2:4e:01:fd:b9:cc:f8:
                    ab:a1:7a:cf:1b:b2:13:65:7b:66:1b:35:d3:dd:94:
                    3c:1e:11:4d:98:9f:dd:97:25:79:56:42:02:f5:13:
                    92:96:43:42:59:8b:1f:67:a6:f8:64:8e:e5:7b:b9:
                    23:e5:04:1c:95:62:31:27:04:c1:a5:25:9b:94:8f:
                    61:c9:5c:24:39:2d:1d:16:cb:41:3b:37:40:08:5d:
                    2c:b6:3d
                Exponent: 65537 (0x10001)
        X509v3 extensions:
            X509v3 Basic Constraints: 
                CA:FALSE
            Netscape Comment: 
                OpenSSL Generated Certificate
            X509v3 Subject Key Identifier: 
                38:2F:65:50:C5:77:49:0B:6F:CA:D5:91:78:A9:BF:3E:5D:6C:43:0C
            X509v3 Authority Key Identifier: 
                keyid:86:49:2D:3A:2A:7B:9E:5F:AA:EB:B8:C0:DA:D9:07:99:00:F6:D2:D3

    Signature Algorithm: sha256WithRSAEncryption
         bd:b5:d3:85:62:59:13:73:aa:35:5e:d5:f4:53:d4:16:fe:b1:
         63:2c:08:c7:34:0f:a8:23:aa:8b:51:c2:98:32:ed:9b:9d:3e:
         98:b5:56:25:9c:07:18:b4:ec:78:cf:35:68:92:02:4e:37:35:
         bb:4e:c4:f2:11:5c:35:6e:5b:8a:ad:e2:26:36:75:43:5d:bb:
         5b:07:c6:c7:56:43:f7:92:58:d3:a7:b4:ee:9f:7b:b7:10:9a:
         98:43:c4:91:15:3f:8c:5c:60:d8:ce:bc:e9:0a:59:8d:04:d8:
         0b:e1:90:36:e6:35:71:a6:a8:86:8f:a7:8b:3b:2e:24:b4:2a:
         f1:8f:27:87:75:41:6a:91:4e:1f:4f:ac:3b:97:eb:ff:bf:b7:
         91:ae:e8:5b:5d:a6:b9:f0:38:96:47:d7:70:cf:bb:b2:76:a0:
         04:67:ba:3b:52:c1:8d:02:da:3c:ef:ee:78:7f:89:15:4d:65:
         f6:96:26:07:bb:d5:39:88:4f:42:39:54:e5:42:4d:6c:4b:58:
         e5:a8:3e:c9:ae:8e:b5:ae:64:4d:80:68:59:b4:2d:f3:09:b8:
         62:b7:cd:e5:5f:4c:83:91:91:d8:9a:94:1d:55:32:41:d1:db:
         c0:39:df:72:eb:9f:dd:13:c0:67:7e:97:39:8a:fa:24:92:11:
         dd:de:ec:7a:14:3e:2f:c7:ed:d0:bc:a9:4b:9b:62:6c:e1:ea:
         fc:8b:08:7a:52:e9:af:86:4b:7f:1c:2b:ea:3a:51:9c:76:04:
         e6:0b:7c:9e:49:6b:b9:4c:8f:d9:9c:50:ba:10:9b:52:37:9d:
         b0:d5:a1:29:02:9b:8a:a8:95:a6:f2:0f:c1:74:2b:d3:5a:76:
         a4:10:30:3f:e3:c4:0a:7a:a9:16:d6:5c:3e:65:de:ff:1e:5a:
         f4:77:b1:e9:04:ad:48:9d:c1:d0:ee:fe:9e:ed:ae:b3:da:dc:
         1b:e6:9b:17:2c:8a:e6:3b:d6:76:3c:0a:82:54:7b:36:c6:9b:
         35:f0:f8:95:0c:bd:ee:fa:fa:8f:14:0a:4f:d7:90:f0:4f:6a:
         dd:7a:1b:d5:88:12:ed:2b:00:1c:b6:1d:91:51:04:d7:76:f7:
         94:0f:32:9e:d5:e3:3f:9b:6e:a5:f2:3c:3f:8b:6f:1e:e9:a1:
         05:ce:4c:30:84:0c:8d:22:53:70:33:e0:31:c1:1e:10:8e:b3:
         89:47:ff:df:aa:dd:bf:51:7c:3c:c6:7b:a7:86:9b:34:ed:69:
         2a:55:f0:1d:66:80:6a:53:a9:f2:b5:ea:d2:7b:cf:4c:c9:cb:
         6d:93:24:8b:e7:86:ae:57:d0:b4:2e:c9:84:67:51:46:43:dc:
         f3:33:15:97:3c:42:09:7e
-----BEGIN CERTIFICATE-----
MIIFSjCCAzKgAwIBAgIEEkgWOTANBgkqhkiG9w0BAQsFADAnMSUwIwYDVQQDDBxT
UkszX3NoYTI1Nl80MDk2XzY1NTM3X3YzX2NhMB4XDTIxMDgyNDE3MDYzOVoXDTMx
MDgyMjE3MDYzOVowKjEoMCYGA1UEAwwfQ1NGM18xX3NoYTI1Nl80MDk2XzY1NTM3
X3YzX3VzcjCCAiIwDQYJKoZIhvcNAQEBBQADggIPADCCAgoCggIBAPIy8stHvCgf
hI+KPxyCQlPmNUb4l9PNXHLYfeBFXyDP+rZW0Vnb/v8BCfWXmCo0qbBLRLak+8XD
/pAAkjwJRy6TyEAjAAyopn79V5oWa1yroiN2FxNgllCS6EMq5na8ZmAYOYvIIiTb
hqE2lnJaBBWuGsQuG5nSEnl6Zmelhi65nRLEcG3tQzWD6D81d+FamLrQJT2UYCx+
M2HSxJ8PYZuVrlgiLXx5xNlZGjB/2hBq/jfPq+puZxWx+YrOS3kg9mKTfWTEfalq
W7g4ml7KNn8XHitNwd7yTs6XoMNkAc6Y4TAusqX0mYzdXZCqLs8sR+OCQuE54eJ5
hWN5oUHTfW/Q0MoJ7rDTzMlMrf0KLppkIKfh0laACbX/5Eqnfdx6WOa4vmc2w/4+
8fD2tAGoWDQeUGiZQBj6GON3rGYbNbUeY+CTmBEfhGNmiTZnA+ZwmKt8zoQFDGRo
3e265ZaO5RdtX1Thno1p2b+FQEIE5N2Fcvr3mT8z5/IqlPcEKg4oMdAkdUVX/sYg
sJ4xpnZRO3ogYkWy6ObIa/hiB6xYZF0O+VC1Ot4FdqPjNyvSTgH9ucz4q6F6zxuy
E2V7Zhs1092UPB4RTZif3ZcleVZCAvUTkpZDQlmLH2em+GSO5Xu5I+UEHJViMScE
waUlm5SPYclcJDktHRbLQTs3QAhdLLY9AgMBAAGjezB5MAkGA1UdEwQCMAAwLAYJ
YIZIAYb4QgENBB8WHU9wZW5TU0wgR2VuZXJhdGVkIENlcnRpZmljYXRlMB0GA1Ud
DgQWBBQ4L2VQxXdJC2/K1ZF4qb8+XWxDDDAfBgNVHSMEGDAWgBSGSS06KnueX6rr
uMDa2QeZAPbS0zANBgkqhkiG9w0BAQsFAAOCAgEAvbXThWJZE3OqNV7V9FPUFv6x
YywIxzQPqCOqi1HCmDLtm50+mLVWJZwHGLTseM81aJICTjc1u07E8hFcNW5biq3i
JjZ1Q127WwfGx1ZD95JY06e07p97txCamEPEkRU/jFxg2M686QpZjQTYC+GQNuY1
caaoho+nizsuJLQq8Y8nh3VBapFOH0+sO5fr/7+3ka7oW12mufA4lkfXcM+7snag
BGe6O1LBjQLaPO/ueH+JFU1l9pYmB7vVOYhPQjlU5UJNbEtY5ag+ya6Ota5kTYBo
WbQt8wm4YrfN5V9Mg5GR2JqUHVUyQdHbwDnfcuuf3RPAZ36XOYr6JJIR3d7sehQ+
L8ft0LypS5tibOHq/IsIelLpr4ZLfxwr6jpRnHYE5gt8nklruUyP2ZxQuhCbUjed
sNWhKQKbiqiVpvIPwXQr01p2pBAwP+PECnqpFtZcPmXe/x5a9Hex6QStSJ3B0O7+
nu2us9rcG+abFyyK5jvWdjwKglR7NsabNfD4lQy97vr6jxQKT9eQ8E9q3Xob1YgS
7SsAHLYdkVEE13b3lA8yntXjP5tupfI8P4tvHumhBc5MMIQMjSJTcDPgMcEeEI6z
iUf/36rdv1F8PMZ7p4abNO1pKlXwHWaAalOp8rXq0nvPTMnLbZMki+eGrlfQtC7J
hGdRRkPc8zMVlzxCCX4=
-----END CERTIFICATE-----
