Certificate:
    Data:
        Version: 3 (0x2)
        Serial Number: 306714172 (0x1248163c)
        Signature Algorithm: sha256WithRSAEncryption
        Issuer: CN=SRK4_sha256_4096_65537_v3_ca
        Validity
            Not Before: Aug 24 17:06:41 2021 GMT
            Not After : Aug 22 17:06:41 2031 GMT
        Subject: CN=CSF4_1_sha256_4096_65537_v3_usr
        Subject Public Key Info:
            Public Key Algorithm: rsaEncryption
                RSA Public-Key: (4096 bit)
                Modulus:
                    00:da:39:33:68:b5:5d:e1:8c:12:8d:6b:c2:f0:5d:
                    af:97:43:a9:88:66:fa:d0:bd:7c:76:8b:2e:88:9e:
                    a1:cd:5f:68:7f:c9:b9:a9:68:f8:6f:5b:0c:d4:34:
                    e6:00:5c:cc:0b:f4:7f:a0:b0:bd:cb:ef:08:cd:7a:
                    3d:55:9f:d0:83:b5:f7:87:65:80:39:4b:ba:76:78:
                    7d:38:de:d4:5f:16:8f:b6:eb:b8:6e:20:82:c7:6d:
                    0d:aa:d4:ae:68:c5:9a:47:1c:77:ec:83:e9:02:20:
                    5d:99:70:3c:86:14:11:e1:ab:02:7d:15:6d:9c:02:
                    91:ff:78:ef:16:06:2c:4f:ab:8e:73:b2:38:40:cb:
                    03:32:ff:ac:b8:53:b7:52:af:7d:9b:59:c0:a8:ca:
                    e6:47:e5:87:a3:c5:1f:9b:70:3e:b7:4d:67:28:bb:
                    19:e2:75:4d:32:a0:71:42:79:a1:fe:f1:08:ab:a4:
                    40:b5:24:62:50:3d:ed:eb:43:61:7b:ed:cf:97:7d:
                    72:cc:41:7e:36:72:ac:45:3f:f7:50:4d:82:06:b1:
                    9e:73:d6:89:4d:29:95:c5:63:64:a4:2b:8e:85:78:
                    8b:eb:96:6c:37:14:3a:4f:61:aa:d5:84:37:e8:61:
                    18:28:fa:2d:24:63:a7:2e:3e:1f:b8:3f:d3:97:bb:
                    58:50:4d:a3:96:60:ed:a1:66:d1:be:80:52:51:c8:
                    25:f1:e2:cc:df:bc:46:dc:3d:ef:6e:f4:e6:76:f3:
                    70:4c:00:39:19:57:d6:5a:68:2c:86:59:04:d5:d7:
                    54:af:46:56:8a:13:ff:1c:22:30:d6:41:0d:2e:60:
                    7e:b8:6f:4e:9a:45:d3:3a:1a:8e:6e:e4:af:25:5b:
                    c2:8c:ba:0c:8b:06:6c:a6:51:21:04:4d:f6:85:c8:
                    1e:98:3b:77:6a:06:a3:86:4e:f5:57:fd:90:87:33:
                    f6:63:1a:6a:eb:06:b3:7b:ef:f2:cb:f6:b6:49:f5:
                    0e:85:96:26:db:8e:bb:b3:83:08:9e:d3:e7:3a:98:
                    db:06:62:a6:82:54:87:0a:d1:12:c0:71:f0:8c:3d:
                    ec:65:1b:47:91:17:8b:c3:cf:f5:d6:fb:ce:b3:17:
                    3c:bc:f3:4b:67:f9:d8:29:99:76:8b:bf:60:91:37:
                    ae:65:82:61:26:ce:98:24:34:70:1b:b2:34:1d:97:
                    80:e0:c4:27:87:72:1a:98:2f:1d:82:73:17:e3:9c:
                    69:be:2e:1f:6d:ca:a7:42:f3:3d:cb:77:34:0d:39:
                    6a:3d:29:3f:01:76:74:66:26:b7:9e:d0:d3:a1:38:
                    80:1b:62:e1:24:58:c0:06:b1:bf:e6:5c:c5:69:ce:
                    d5:00:99
                Exponent: 65537 (0x10001)
        X509v3 extensions:
            X509v3 Basic Constraints: 
                CA:FALSE
            Netscape Comment: 
                OpenSSL Generated Certificate
            X509v3 Subject Key Identifier: 
                93:A6:2F:0F:88:88:D4:1E:29:43:62:F5:61:A2:A3:BE:1E:64:F3:0E
            X509v3 Authority Key Identifier: 
                keyid:72:5A:08:D5:E9:36:72:5D:A6:29:F8:71:D3:C1:8E:37:F1:2E:3B:A2

    Signature Algorithm: sha256WithRSAEncryption
         84:04:d0:98:a0:07:cd:f6:3b:fd:d1:89:90:49:43:e0:03:e4:
         c4:34:d7:55:c6:d2:87:7a:bb:01:ad:d1:b9:5e:d6:1a:85:cb:
         4b:e3:e8:15:8e:fa:77:e2:12:e0:32:6b:e0:a3:36:c6:4a:49:
         2a:76:d9:15:69:56:72:c1:63:cd:5f:8b:e2:26:43:84:71:14:
         8a:12:11:d6:a0:20:fe:bb:37:0c:3a:89:0c:7a:5a:17:fa:02:
         34:8c:41:6a:e3:d0:d7:21:70:ba:8a:f8:22:07:9b:2f:cd:6d:
         db:30:09:0b:2c:0f:a6:38:70:d7:6c:0d:24:6a:2a:d5:7e:f1:
         e8:0a:b4:66:dc:ef:dd:5f:ee:58:5c:45:78:8a:c9:31:76:f0:
         07:3c:a9:41:0c:66:4e:c5:4b:90:26:94:3d:21:d0:5d:ce:ed:
         db:7c:2b:a0:20:de:33:1a:98:30:3c:cb:99:ac:01:e9:df:8c:
         5b:5b:dd:4b:3b:9f:17:7f:01:46:e6:17:e1:76:72:a6:58:57:
         91:d8:de:3a:ac:b7:fd:ac:b5:e3:44:13:84:13:2f:44:da:d2:
         d2:4b:2e:ac:b8:16:11:47:77:ff:b1:0f:1a:15:46:ef:11:9e:
         75:57:ef:d9:13:d9:4f:a3:0d:e9:fb:1b:30:69:8d:29:1c:a3:
         f4:cb:0f:f2:73:b2:84:3c:3d:77:de:eb:f7:72:fe:cf:21:cd:
         84:4d:d1:fd:88:23:cf:9f:cb:72:60:8b:40:3b:81:cb:d2:ca:
         64:96:a3:d4:3d:e4:e8:02:84:76:05:47:0b:89:a8:b3:0f:b7:
         d3:e3:11:f0:66:32:ed:15:99:97:2e:1c:e1:37:0a:2b:88:be:
         c0:80:35:56:d9:f9:27:7d:33:8d:0f:9d:06:8e:a0:d2:07:bc:
         71:44:2c:5d:61:f2:30:e8:28:61:d2:25:b5:90:96:0a:66:ab:
         84:3c:e0:bf:19:70:88:5f:ce:d0:df:0d:df:50:93:95:9b:cc:
         9d:99:20:bb:00:ae:b3:cb:e8:43:4d:3a:a1:16:87:ad:49:71:
         aa:99:2f:9a:27:57:32:d9:18:05:46:07:a2:ef:dc:d3:de:fc:
         89:a2:b4:a7:13:94:8f:ec:e2:b4:37:ea:2b:0d:3b:a7:bb:93:
         54:65:e0:2a:a5:a5:a8:8d:0b:48:63:78:c4:30:51:7f:10:66:
         c0:d5:8f:0a:4b:5a:cd:cf:8a:41:93:7e:3e:18:7a:2f:30:1f:
         6d:87:e6:d9:5f:27:87:09:96:1f:64:b7:3e:8c:97:39:c6:bd:
         b0:ab:8f:c5:ff:44:22:c2:4d:37:55:a5:7c:a1:76:7e:f3:10:
         be:61:b6:fa:f3:19:36:05
-----BEGIN CERTIFICATE-----
MIIFSjCCAzKgAwIBAgIEEkgWPDANBgkqhkiG9w0BAQsFADAnMSUwIwYDVQQDDBxT
Uks0X3NoYTI1Nl80MDk2XzY1NTM3X3YzX2NhMB4XDTIxMDgyNDE3MDY0MVoXDTMx
MDgyMjE3MDY0MVowKjEoMCYGA1UEAwwfQ1NGNF8xX3NoYTI1Nl80MDk2XzY1NTM3
X3YzX3VzcjCCAiIwDQYJKoZIhvcNAQEBBQADggIPADCCAgoCggIBANo5M2i1XeGM
Eo1rwvBdr5dDqYhm+tC9fHaLLoieoc1faH/Jualo+G9bDNQ05gBczAv0f6Cwvcvv
CM16PVWf0IO194dlgDlLunZ4fTje1F8Wj7bruG4ggsdtDarUrmjFmkccd+yD6QIg
XZlwPIYUEeGrAn0VbZwCkf947xYGLE+rjnOyOEDLAzL/rLhTt1KvfZtZwKjK5kfl
h6PFH5twPrdNZyi7GeJ1TTKgcUJ5of7xCKukQLUkYlA97etDYXvtz5d9csxBfjZy
rEU/91BNggaxnnPWiU0plcVjZKQrjoV4i+uWbDcUOk9hqtWEN+hhGCj6LSRjpy4+
H7g/05e7WFBNo5Zg7aFm0b6AUlHIJfHizN+8Rtw972705nbzcEwAORlX1lpoLIZZ
BNXXVK9GVooT/xwiMNZBDS5gfrhvTppF0zoajm7kryVbwoy6DIsGbKZRIQRN9oXI
Hpg7d2oGo4ZO9Vf9kIcz9mMaausGs3vv8sv2tkn1DoWWJtuOu7ODCJ7T5zqY2wZi
poJUhwrREsBx8Iw97GUbR5EXi8PP9db7zrMXPLzzS2f52CmZdou/YJE3rmWCYSbO
mCQ0cBuyNB2XgODEJ4dyGpgvHYJzF+Ocab4uH23Kp0LzPct3NA05aj0pPwF2dGYm
t57Q06E4gBti4SRYwAaxv+ZcxWnO1QCZAgMBAAGjezB5MAkGA1UdEwQCMAAwLAYJ
YIZIAYb4QgENBB8WHU9wZW5TU0wgR2VuZXJhdGVkIENlcnRpZmljYXRlMB0GA1Ud
DgQWBBSTpi8PiIjUHilDYvVhoqO+HmTzDjAfBgNVHSMEGDAWgBRyWgjV6TZyXaYp
+HHTwY438S47ojANBgkqhkiG9w0BAQsFAAOCAgEAhATQmKAHzfY7/dGJkElD4APk
xDTXVcbSh3q7Aa3RuV7WGoXLS+PoFY76d+IS4DJr4KM2xkpJKnbZFWlWcsFjzV+L
4iZDhHEUihIR1qAg/rs3DDqJDHpaF/oCNIxBauPQ1yFwuor4IgebL81t2zAJCywP
pjhw12wNJGoq1X7x6Aq0Ztzv3V/uWFxFeIrJMXbwBzypQQxmTsVLkCaUPSHQXc7t
23wroCDeMxqYMDzLmawB6d+MW1vdSzufF38BRuYX4XZyplhXkdjeOqy3/ay140QT
hBMvRNrS0ksurLgWEUd3/7EPGhVG7xGedVfv2RPZT6MN6fsbMGmNKRyj9MsP8nOy
hDw9d97r93L+zyHNhE3R/Ygjz5/LcmCLQDuBy9LKZJaj1D3k6AKEdgVHC4mosw+3
0+MR8GYy7RWZly4c4TcKK4i+wIA1Vtn5J30zjQ+dBo6g0ge8cUQsXWHyMOgoYdIl
tZCWCmarhDzgvxlwiF/O0N8N31CTlZvMnZkguwCus8voQ006oRaHrUlxqpkvmidX
MtkYBUYHou/c0978iaK0pxOUj+zitDfqKw07p7uTVGXgKqWlqI0LSGN4xDBRfxBm
wNWPCktazc+KQZN+Phh6LzAfbYfm2V8nhwmWH2S3PoyXOca9sKuPxf9EIsJNN1Wl
fKF2fvMQvmG2+vMZNgU=
-----END CERTIFICATE-----
