Certificate:
    Data:
        Version: 3 (0x2)
        Serial Number: 306714170 (0x1248163a)
        Signature Algorithm: sha256WithRSAEncryption
        Issuer: CN=SRK3_sha256_4096_65537_v3_ca
        Validity
            Not Before: Aug 24 17:06:40 2021 GMT
            Not After : Aug 22 17:06:40 2031 GMT
        Subject: CN=IMG3_1_sha256_4096_65537_v3_usr
        Subject Public Key Info:
            Public Key Algorithm: rsaEncryption
                RSA Public-Key: (4096 bit)
                Modulus:
                    00:cb:8d:14:50:36:72:2a:bc:09:da:77:77:4d:24:
                    67:bb:bb:c7:1d:1c:c8:64:af:12:1f:11:0e:89:f4:
                    ff:71:f5:fa:20:35:0a:a7:38:dd:03:a8:1d:b8:3a:
                    cd:47:03:2a:7c:5c:b7:02:56:6d:37:a0:1c:9b:fb:
                    e4:ac:ec:53:b2:44:1f:6d:b8:91:dd:9c:9b:db:77:
                    e0:46:15:2e:c5:b0:66:b1:06:c9:86:b3:20:a6:83:
                    6b:a1:e3:fa:4e:f5:50:e3:02:d2:43:6c:8e:3e:e7:
                    cd:1e:74:56:38:1a:29:2f:4d:06:54:f0:50:b2:e3:
                    bc:13:b0:ee:2f:08:ef:c5:9d:e3:0f:13:14:56:24:
                    0e:c6:23:8d:0d:60:b9:cf:c7:13:a9:c2:84:39:e5:
                    60:63:2d:c1:4d:09:30:63:31:f4:c7:2b:07:b8:41:
                    c2:11:3b:1b:5d:d0:34:6c:a7:a7:ec:a0:45:45:c3:
                    f6:4b:cd:71:c2:21:a8:76:97:ab:1a:10:cf:bd:3e:
                    f3:fa:49:6a:87:d6:76:73:86:af:28:f5:f3:03:9f:
                    dc:6c:24:0e:cf:13:e5:e5:e9:d8:78:79:3e:f4:be:
                    15:01:bb:21:92:2a:dd:0f:58:0a:cb:1d:75:ee:2a:
                    27:52:bf:c5:cd:c8:ce:af:39:56:b3:48:8a:96:ab:
                    e8:f1:bc:8e:7e:75:60:40:23:ff:3c:b9:df:b3:84:
                    96:30:f6:6c:88:bd:8f:49:74:83:22:86:e0:72:2a:
                    44:43:61:8e:12:84:3c:99:c3:94:e1:3d:6a:25:db:
                    36:13:36:af:19:47:a7:80:7e:92:7b:0e:f8:1a:13:
                    c4:d4:82:b1:ba:45:d7:9d:15:e0:45:d2:1d:8f:ec:
                    f6:f2:31:45:ec:57:ad:6c:01:4c:b9:40:61:1d:19:
                    ae:fe:6c:86:b5:53:85:70:44:d7:64:21:b4:d7:05:
                    55:38:b6:29:7c:57:de:9a:9e:02:1d:55:36:16:20:
                    6c:98:7b:2b:57:d6:79:4b:8e:f6:42:0e:f3:67:e0:
                    90:01:ec:49:3c:b1:67:a3:bc:38:a6:cd:6f:9e:f9:
                    e9:00:93:7d:7e:5b:0c:ae:83:32:47:77:da:48:2b:
                    4c:25:ee:93:0c:17:2d:a1:e6:1e:c1:2b:94:50:49:
                    74:22:dc:2d:01:1b:95:4f:8b:3c:83:48:ab:26:f2:
                    45:ef:5f:e2:e0:62:50:15:38:c8:c0:a4:bd:69:d2:
                    24:63:15:15:f5:86:1e:c7:c6:b2:95:fe:fd:5e:f5:
                    39:6e:c7:4a:2d:fb:e1:ec:0d:e5:bc:67:68:d9:63:
                    a6:41:8d:94:b4:fb:ad:97:73:dc:8a:43:2c:17:ca:
                    35:1f:3b
                Exponent: 65537 (0x10001)
        X509v3 extensions:
            X509v3 Basic Constraints: 
                CA:FALSE
            Netscape Comment: 
                OpenSSL Generated Certificate
            X509v3 Subject Key Identifier: 
                59:9F:56:1D:65:02:5C:92:38:24:AB:78:50:BB:7B:2D:0D:5B:8A:78
            X509v3 Authority Key Identifier: 
                keyid:86:49:2D:3A:2A:7B:9E:5F:AA:EB:B8:C0:DA:D9:07:99:00:F6:D2:D3

    Signature Algorithm: sha256WithRSAEncryption
         05:9d:2d:e4:1d:56:d8:de:c8:42:3b:48:7e:63:f1:5b:75:f0:
         b3:d3:ab:30:b3:dd:f3:01:27:12:35:84:49:21:a9:1f:e1:7d:
         e0:d7:a2:00:76:b2:ce:1b:d4:ef:28:96:19:26:88:5f:bd:05:
         a4:95:15:af:ba:ad:91:79:4f:5e:5a:07:83:1d:1a:f0:ef:0b:
         76:63:e9:72:02:cb:3c:87:2d:fd:2a:38:b0:76:6b:6b:db:e6:
         0e:0c:61:7c:3d:da:4b:44:25:05:ef:29:47:f5:70:74:94:ef:
         68:48:92:c2:3d:9f:a7:09:b3:20:03:c4:6b:53:a6:94:9a:42:
         e2:58:11:27:00:52:4e:84:ab:08:7e:b0:92:74:66:31:cc:ce:
         5c:71:1a:f7:36:7b:67:07:9c:b5:df:bd:d5:4b:c7:a5:2e:b4:
         01:db:90:2d:22:03:68:0f:5d:b6:59:75:c3:3a:90:e9:5e:12:
         ad:72:24:b4:af:3e:53:c7:88:55:92:99:b9:f5:30:de:f3:07:
         4c:9e:bf:2d:cb:ce:f2:bc:79:44:0a:80:94:a3:be:ad:6a:02:
         c8:e2:05:9a:0c:35:9c:46:38:61:3b:74:c9:f1:a4:26:c1:91:
         e5:1b:b9:df:54:11:7a:e5:70:fd:4e:f3:f8:b7:bb:3e:87:6b:
         3e:0e:cb:4c:b4:6d:ad:f4:c7:4a:31:3e:fb:ab:31:05:b8:7b:
         59:52:d4:28:5d:a6:8b:95:91:66:32:b0:61:0b:12:27:69:ae:
         ee:c8:21:09:01:b7:e2:e2:ae:51:88:94:71:ca:a4:67:e3:1b:
         71:09:b7:09:bc:b3:79:72:28:57:92:29:70:49:e5:58:fd:88:
         b1:22:d3:37:60:71:1c:f9:89:00:fd:0f:8d:25:8a:c8:e4:cd:
         74:5d:f1:9d:5f:40:b3:b9:55:4e:2e:ef:a2:fd:fc:11:e4:3d:
         40:99:d5:e8:94:25:dc:f7:dd:0e:98:18:91:98:c7:e8:d8:71:
         48:34:63:e8:c4:66:f9:3d:8b:4f:28:24:d3:79:0e:fb:af:ee:
         f7:93:80:eb:e7:e6:8a:32:02:e1:de:ca:7e:a7:ce:aa:af:75:
         99:ee:d6:ef:d2:ad:51:bd:82:5f:34:30:52:1a:5e:87:ac:50:
         5b:7d:9b:53:db:45:ef:91:6c:b8:06:dd:4a:7e:bd:06:e0:f8:
         e3:1e:d9:f5:37:85:d8:95:f9:36:e4:ee:0e:d9:7a:fd:78:8a:
         5a:b8:af:18:56:a5:5b:7d:16:c7:65:7d:5f:b5:75:73:e6:d1:
         9f:95:aa:a4:78:6a:bf:b4:42:04:0c:cf:dd:03:5e:67:0a:9c:
         49:62:d1:fc:39:e9:f9:64
-----BEGIN CERTIFICATE-----
MIIFSjCCAzKgAwIBAgIEEkgWOjANBgkqhkiG9w0BAQsFADAnMSUwIwYDVQQDDBxT
UkszX3NoYTI1Nl80MDk2XzY1NTM3X3YzX2NhMB4XDTIxMDgyNDE3MDY0MFoXDTMx
MDgyMjE3MDY0MFowKjEoMCYGA1UEAwwfSU1HM18xX3NoYTI1Nl80MDk2XzY1NTM3
X3YzX3VzcjCCAiIwDQYJKoZIhvcNAQEBBQADggIPADCCAgoCggIBAMuNFFA2ciq8
Cdp3d00kZ7u7xx0cyGSvEh8RDon0/3H1+iA1Cqc43QOoHbg6zUcDKnxctwJWbTeg
HJv75KzsU7JEH224kd2cm9t34EYVLsWwZrEGyYazIKaDa6Hj+k71UOMC0kNsjj7n
zR50VjgaKS9NBlTwULLjvBOw7i8I78Wd4w8TFFYkDsYjjQ1guc/HE6nChDnlYGMt
wU0JMGMx9McrB7hBwhE7G13QNGynp+ygRUXD9kvNccIhqHaXqxoQz70+8/pJaofW
dnOGryj18wOf3GwkDs8T5eXp2Hh5PvS+FQG7IZIq3Q9YCssdde4qJ1K/xc3Izq85
VrNIipar6PG8jn51YEAj/zy537OEljD2bIi9j0l0gyKG4HIqRENhjhKEPJnDlOE9
aiXbNhM2rxlHp4B+knsO+BoTxNSCsbpF150V4EXSHY/s9vIxRexXrWwBTLlAYR0Z
rv5shrVThXBE12QhtNcFVTi2KXxX3pqeAh1VNhYgbJh7K1fWeUuO9kIO82fgkAHs
STyxZ6O8OKbNb5756QCTfX5bDK6DMkd32kgrTCXukwwXLaHmHsErlFBJdCLcLQEb
lU+LPINIqybyRe9f4uBiUBU4yMCkvWnSJGMVFfWGHsfGspX+/V71OW7HSi374ewN
5bxnaNljpkGNlLT7rZdz3IpDLBfKNR87AgMBAAGjezB5MAkGA1UdEwQCMAAwLAYJ
YIZIAYb4QgENBB8WHU9wZW5TU0wgR2VuZXJhdGVkIENlcnRpZmljYXRlMB0GA1Ud
DgQWBBRZn1YdZQJckjgkq3hQu3stDVuKeDAfBgNVHSMEGDAWgBSGSS06KnueX6rr
uMDa2QeZAPbS0zANBgkqhkiG9w0BAQsFAAOCAgEABZ0t5B1W2N7IQjtIfmPxW3Xw
s9OrMLPd8wEnEjWESSGpH+F94NeiAHayzhvU7yiWGSaIX70FpJUVr7qtkXlPXloH
gx0a8O8LdmPpcgLLPIct/So4sHZra9vmDgxhfD3aS0QlBe8pR/VwdJTvaEiSwj2f
pwmzIAPEa1OmlJpC4lgRJwBSToSrCH6wknRmMczOXHEa9zZ7Zwectd+91UvHpS60
AduQLSIDaA9dtll1wzqQ6V4SrXIktK8+U8eIVZKZufUw3vMHTJ6/LcvO8rx5RAqA
lKO+rWoCyOIFmgw1nEY4YTt0yfGkJsGR5Ru531QReuVw/U7z+Le7PodrPg7LTLRt
rfTHSjE++6sxBbh7WVLUKF2mi5WRZjKwYQsSJ2mu7sghCQG34uKuUYiUccqkZ+Mb
cQm3CbyzeXIoV5IpcEnlWP2IsSLTN2BxHPmJAP0PjSWKyOTNdF3xnV9As7lVTi7v
ov38EeQ9QJnV6JQl3PfdDpgYkZjH6NhxSDRj6MRm+T2LTygk03kO+6/u95OA6+fm
ijIC4d7KfqfOqq91me7W79KtUb2CXzQwUhpeh6xQW32bU9tF75FsuAbdSn69BuD4
4x7Z9TeF2JX5NuTuDtl6/XiKWrivGFalW30Wx2V9X7V1c+bRn5WqpHhqv7RCBAzP
3QNeZwqcSWLR/Dnp+WQ=
-----END CERTIFICATE-----
