Certificate:
    Data:
        Version: 3 (0x2)
        Serial Number: 306714173 (0x1248163d)
        Signature Algorithm: sha256WithRSAEncryption
        Issuer: CN=SRK4_sha256_4096_65537_v3_ca
        Validity
            Not Before: Aug 24 17:06:41 2021 GMT
            Not After : Aug 22 17:06:41 2031 GMT
        Subject: CN=IMG4_1_sha256_4096_65537_v3_usr
        Subject Public Key Info:
            Public Key Algorithm: rsaEncryption
                RSA Public-Key: (4096 bit)
                Modulus:
                    00:cd:19:34:c4:63:03:5f:f6:9e:07:85:64:fc:6b:
                    4b:e7:e1:a1:77:e6:e9:1f:bb:29:b0:2f:15:87:f7:
                    59:b7:a7:2d:99:e9:84:ff:a0:0e:dd:84:69:51:93:
                    23:34:c6:1f:f5:65:ff:d0:0b:e3:7b:e6:cb:8d:5e:
                    c4:0f:39:4a:e7:0c:5c:42:e6:e3:38:18:f2:54:99:
                    ac:2a:33:4a:d0:47:40:6a:df:d5:8d:6c:b8:90:84:
                    e5:6c:8a:91:fa:c1:b6:cf:5a:a6:e9:5c:11:77:c1:
                    79:f5:d7:8d:0d:3d:be:7b:5d:d0:61:e4:a1:12:7c:
                    a9:14:84:97:50:62:89:db:99:75:5f:13:d8:c5:07:
                    b8:35:0e:f4:86:bd:56:26:c8:d9:79:56:8c:f2:d0:
                    f0:67:3c:b4:fc:e0:02:68:13:ea:04:fb:94:ee:4f:
                    8b:ca:47:c1:39:09:df:76:9d:76:40:6b:8e:2a:d4:
                    8c:ff:56:19:12:26:5d:70:39:08:e2:72:e4:7f:bd:
                    d7:0c:4f:8f:98:ca:64:90:71:3b:76:a2:51:d2:43:
                    0f:fd:39:e9:a4:e3:71:e9:10:bb:ec:fa:aa:6a:36:
                    7d:2b:ed:27:82:da:2b:38:f5:ea:9e:62:4e:f2:bd:
                    3a:c1:b1:d1:53:ad:52:35:82:2d:f9:8a:00:ee:e3:
                    b5:fd:19:f6:88:12:dd:25:ef:f4:4d:5a:50:cb:8a:
                    92:2e:4d:e3:99:89:c0:79:74:cd:58:41:4e:b7:27:
                    41:16:08:1a:07:e2:0a:44:af:5b:85:80:76:90:2a:
                    85:80:9b:4a:fa:7d:c3:2d:db:34:57:e4:e0:e8:a2:
                    a4:9d:cd:53:4e:96:fd:77:f3:6a:42:93:c6:71:3d:
                    06:57:bc:4f:ba:43:d2:17:8f:2b:fb:3f:fe:96:ea:
                    ea:e9:63:c5:6a:10:a9:06:f3:89:42:3f:ae:03:8f:
                    26:81:ee:d7:7f:a3:3e:72:cb:40:7a:7a:07:19:a4:
                    31:e2:c0:9f:f6:d4:d2:b9:26:14:93:53:3c:b2:89:
                    bd:db:36:1e:aa:4a:55:75:5a:af:4e:13:0b:03:ea:
                    b8:ef:71:45:f7:96:52:e9:07:b1:a0:a6:34:cc:60:
                    3c:b8:31:4f:ac:e7:5d:49:03:1a:fa:b7:f6:5d:53:
                    2f:1e:cb:ac:e8:f5:06:7f:ae:32:af:e9:58:3d:39:
                    8d:9a:e5:e3:93:d4:98:95:ce:25:89:da:ad:64:83:
                    58:1e:8b:2b:86:dd:6e:d8:ec:e3:ba:9f:47:70:7d:
                    a9:1c:b3:fd:bc:cc:01:14:3c:ae:df:37:2d:72:14:
                    1d:7b:cf:11:d7:00:da:4b:6a:a7:74:41:13:79:e1:
                    ef:83:4f
                Exponent: 65537 (0x10001)
        X509v3 extensions:
            X509v3 Basic Constraints: 
                CA:FALSE
            Netscape Comment: 
                OpenSSL Generated Certificate
            X509v3 Subject Key Identifier: 
                A1:8F:C8:20:B1:EB:74:E2:43:93:77:36:6C:54:60:FA:EB:E5:FC:3F
            X509v3 Authority Key Identifier: 
                keyid:72:5A:08:D5:E9:36:72:5D:A6:29:F8:71:D3:C1:8E:37:F1:2E:3B:A2

    Signature Algorithm: sha256WithRSAEncryption
         a2:a4:10:60:b6:3b:ce:5e:c3:0c:60:e9:0b:65:5d:fa:a2:65:
         2b:7c:2d:42:b4:b3:81:1e:83:2e:42:4a:db:8a:51:5c:1b:06:
         ae:c4:81:39:b1:7d:90:96:0b:5a:75:06:8c:84:bd:5c:7e:5a:
         ca:b1:e6:ef:81:98:f0:8e:19:ce:1f:29:a6:b4:0e:51:43:cf:
         3a:ca:dd:64:7a:73:aa:bf:47:01:bc:71:20:6f:22:87:af:9b:
         70:9c:5a:06:dd:fb:d6:b8:de:cd:41:6a:6d:59:c8:31:f0:51:
         20:e0:1c:4a:bd:19:fc:12:6d:12:aa:9b:f0:52:f2:5f:04:98:
         e7:55:6e:2b:ce:98:fc:6d:72:d5:37:d9:dd:4c:52:01:df:3e:
         a0:2e:45:25:97:b0:dc:f8:0e:88:8a:ae:6b:f8:10:74:4c:c5:
         00:c0:cd:8c:e8:8f:11:34:e2:70:a9:3c:31:02:d9:44:96:5f:
         ba:2d:fb:16:dc:f2:fb:05:a3:8e:c7:d3:90:92:08:55:48:0e:
         77:10:a0:a3:5a:c4:c6:38:c5:54:db:24:53:c3:c8:09:e2:d4:
         88:f3:a1:51:af:6f:e0:2d:9f:bd:6c:09:f4:d3:96:56:a6:45:
         46:7c:ef:75:4e:1f:66:18:4e:34:44:d5:a1:93:62:7e:8a:05:
         69:e7:d1:c9:19:d8:7f:6a:38:98:df:9e:db:04:db:7f:09:f7:
         a0:73:0d:4c:a8:94:15:75:90:bb:45:4b:dd:79:94:a7:c6:46:
         d4:fe:44:6c:e7:83:05:96:a6:1e:a8:3e:c3:54:02:d5:83:c7:
         d2:47:3f:9c:63:d4:4a:b1:54:86:50:b0:64:3f:67:a6:04:01:
         30:8d:db:08:5f:85:c5:dc:07:3b:fc:00:db:ca:ee:5c:3e:32:
         aa:b5:ed:63:f6:dc:ce:57:e4:d5:a0:b6:8b:ed:69:a5:7d:44:
         11:36:34:5c:dd:91:41:37:49:da:c3:2b:11:29:35:98:e7:59:
         01:4f:c4:23:b5:c2:6e:df:f7:e5:58:6e:34:43:c2:a2:30:2c:
         be:38:b7:c8:d4:33:e3:1d:c8:a7:07:05:8c:0e:c1:82:63:ef:
         0a:a8:4f:ed:e5:be:82:2c:90:6a:19:6a:41:10:ee:b7:4a:6b:
         7d:56:b1:22:10:08:ff:66:76:6a:e9:97:d7:b2:ee:30:19:7a:
         60:7c:ba:c8:07:ac:3f:99:e9:19:aa:cf:26:62:40:54:c5:a8:
         8c:b7:9b:fc:c9:36:a2:e3:6f:1b:30:0f:a1:30:b9:ac:cc:bf:
         85:e8:11:ca:df:5d:4c:1b:4a:b0:f5:cb:c1:d6:c0:45:b9:6a:
         43:2d:36:94:25:af:e2:0b
-----BEGIN CERTIFICATE-----
MIIFSjCCAzKgAwIBAgIEEkgWPTANBgkqhkiG9w0BAQsFADAnMSUwIwYDVQQDDBxT
Uks0X3NoYTI1Nl80MDk2XzY1NTM3X3YzX2NhMB4XDTIxMDgyNDE3MDY0MVoXDTMx
MDgyMjE3MDY0MVowKjEoMCYGA1UEAwwfSU1HNF8xX3NoYTI1Nl80MDk2XzY1NTM3
X3YzX3VzcjCCAiIwDQYJKoZIhvcNAQEBBQADggIPADCCAgoCggIBAM0ZNMRjA1/2
ngeFZPxrS+fhoXfm6R+7KbAvFYf3WbenLZnphP+gDt2EaVGTIzTGH/Vl/9AL43vm
y41exA85SucMXELm4zgY8lSZrCozStBHQGrf1Y1suJCE5WyKkfrBts9apulcEXfB
efXXjQ09vntd0GHkoRJ8qRSEl1BiiduZdV8T2MUHuDUO9Ia9VibI2XlWjPLQ8Gc8
tPzgAmgT6gT7lO5Pi8pHwTkJ33addkBrjirUjP9WGRImXXA5COJy5H+91wxPj5jK
ZJBxO3aiUdJDD/056aTjcekQu+z6qmo2fSvtJ4LaKzj16p5iTvK9OsGx0VOtUjWC
LfmKAO7jtf0Z9ogS3SXv9E1aUMuKki5N45mJwHl0zVhBTrcnQRYIGgfiCkSvW4WA
dpAqhYCbSvp9wy3bNFfk4OiipJ3NU06W/XfzakKTxnE9Ble8T7pD0hePK/s//pbq
6uljxWoQqQbziUI/rgOPJoHu13+jPnLLQHp6BxmkMeLAn/bU0rkmFJNTPLKJvds2
HqpKVXVar04TCwPquO9xRfeWUukHsaCmNMxgPLgxT6znXUkDGvq39l1TLx7LrOj1
Bn+uMq/pWD05jZrl45PUmJXOJYnarWSDWB6LK4bdbtjs47qfR3B9qRyz/bzMARQ8
rt83LXIUHXvPEdcA2ktqp3RBE3nh74NPAgMBAAGjezB5MAkGA1UdEwQCMAAwLAYJ
YIZIAYb4QgENBB8WHU9wZW5TU0wgR2VuZXJhdGVkIENlcnRpZmljYXRlMB0GA1Ud
DgQWBBShj8ggset04kOTdzZsVGD66+X8PzAfBgNVHSMEGDAWgBRyWgjV6TZyXaYp
+HHTwY438S47ojANBgkqhkiG9w0BAQsFAAOCAgEAoqQQYLY7zl7DDGDpC2Vd+qJl
K3wtQrSzgR6DLkJK24pRXBsGrsSBObF9kJYLWnUGjIS9XH5ayrHm74GY8I4Zzh8p
prQOUUPPOsrdZHpzqr9HAbxxIG8ih6+bcJxaBt371rjezUFqbVnIMfBRIOAcSr0Z
/BJtEqqb8FLyXwSY51VuK86Y/G1y1TfZ3UxSAd8+oC5FJZew3PgOiIqua/gQdEzF
AMDNjOiPETTicKk8MQLZRJZfui37Ftzy+wWjjsfTkJIIVUgOdxCgo1rExjjFVNsk
U8PICeLUiPOhUa9v4C2fvWwJ9NOWVqZFRnzvdU4fZhhONETVoZNifooFaefRyRnY
f2o4mN+e2wTbfwn3oHMNTKiUFXWQu0VL3XmUp8ZG1P5EbOeDBZamHqg+w1QC1YPH
0kc/nGPUSrFUhlCwZD9npgQBMI3bCF+FxdwHO/wA28ruXD4yqrXtY/bczlfk1aC2
i+1ppX1EETY0XN2RQTdJ2sMrESk1mOdZAU/EI7XCbt/35VhuNEPCojAsvji3yNQz
4x3IpwcFjA7BgmPvCqhP7eW+giyQahlqQRDut0prfVaxIhAI/2Z2aumX17LuMBl6
YHy6yAesP5npGarPJmJAVMWojLeb/Mk2ouNvGzAPoTC5rMy/hegRyt9dTBtKsPXL
wdbARblqQy02lCWv4gs=
-----END CERTIFICATE-----
