Certificate:
    Data:
        Version: 3 (0x2)
        Serial Number: 306714162 (0x12481632)
        Signature Algorithm: sha256WithRSAEncryption
        Issuer: CN=CA1_sha256_4096_65537_v3_ca
        Validity
            Not Before: Aug 24 17:06:34 2021 GMT
            Not After : Aug 22 17:06:34 2031 GMT
        Subject: CN=SRK1_sha256_4096_65537_v3_ca
        Subject Public Key Info:
            Public Key Algorithm: rsaEncryption
                RSA Public-Key: (4096 bit)
                Modulus:
                    00:ef:d5:37:86:36:61:78:2a:03:02:aa:44:b7:27:
                    f9:f2:48:1e:34:27:63:c4:77:58:10:45:bd:31:ac:
                    45:5d:4d:34:bc:77:87:c7:b9:11:4c:dd:70:f8:1b:
                    1d:05:50:8d:55:ef:b7:7f:df:95:8f:01:cb:2c:0f:
                    24:24:30:e5:d9:6f:2a:c3:32:fd:ac:2d:38:60:c2:
                    e9:f6:2f:47:f6:8f:89:95:3b:75:a4:12:48:64:c6:
                    f5:00:8f:48:10:b8:dc:ab:dd:15:ef:8e:b5:f5:3f:
                    b1:f8:6c:f3:d9:fd:b9:e4:6f:6a:1c:1d:2e:80:51:
                    02:64:b3:45:3d:eb:49:18:cb:f8:5e:ac:74:d1:13:
                    c6:b8:df:91:37:86:14:40:ed:f5:7b:58:b7:d4:26:
                    ba:eb:b4:74:eb:c5:9d:cc:e9:06:ad:ae:6a:80:3c:
                    e7:47:e0:3a:99:13:e9:a1:b7:24:e4:7f:ac:09:a8:
                    e0:a7:af:13:28:4d:52:70:41:26:02:e0:57:4d:b9:
                    54:5f:20:26:c6:99:78:fa:e5:c2:57:e6:63:38:46:
                    d5:de:28:91:fc:60:02:8c:3e:6d:3c:51:25:aa:c0:
                    49:7f:7e:c2:ac:ae:31:d1:a1:32:a6:56:ad:ba:3d:
                    72:18:f9:a9:72:b9:f0:30:93:1e:48:4d:28:8c:7a:
                    85:9e:2c:3e:38:df:82:86:ec:63:af:60:05:af:b4:
                    a9:d7:05:f0:54:db:09:4e:17:5e:a9:4b:84:06:32:
                    15:42:64:0e:57:f4:6a:1a:19:15:bd:ec:bc:ed:95:
                    a9:ef:97:51:3c:93:43:e6:1d:22:be:cf:8c:d1:f5:
                    e1:f6:59:15:2b:79:da:7f:f5:80:cb:ea:a0:69:f6:
                    f1:5b:18:c8:59:15:1b:f1:c7:5d:cf:d3:6d:4c:7b:
                    60:32:7e:0d:15:cb:99:a1:f9:c7:e3:25:0a:3e:7b:
                    26:8d:1b:1e:5c:df:66:a6:98:23:04:bd:eb:69:f7:
                    c6:d4:1c:28:4a:11:42:8b:b4:a8:be:ce:59:7b:3d:
                    db:11:a8:9c:8f:ec:88:db:52:8d:0e:c9:b8:f9:c2:
                    19:24:80:84:70:e0:d2:bd:e6:5a:71:90:4d:05:b9:
                    04:9b:a7:0b:28:46:3a:10:98:5f:b0:d9:55:79:39:
                    41:7d:2f:c5:7b:20:d5:93:56:6d:b4:9b:6b:7a:ec:
                    b7:28:f4:3c:bf:fc:b4:16:f6:ef:3f:28:0b:8d:b4:
                    99:5c:71:81:25:85:c7:b4:46:49:4f:85:ab:3e:79:
                    8e:10:ca:a4:5c:df:e2:94:47:44:af:09:b0:f8:2f:
                    16:5b:49:54:b0:d9:b5:ea:f8:f4:d7:73:b4:14:3a:
                    01:59:7f
                Exponent: 65537 (0x10001)
        X509v3 extensions:
            X509v3 Subject Key Identifier: 
                32:39:55:CF:3E:B7:D4:0B:39:F4:9C:7C:40:ED:89:03:58:64:F0:70
            X509v3 Authority Key Identifier: 
                keyid:8A:9E:AB:9C:91:44:BE:4D:84:88:42:40:A8:5A:32:41:4E:CF:16:E7
                DirName:/CN=CA1_sha256_4096_65537_v3_ca
                serial:57:08:A1:04:B2:94:E6:87:A5:AE:7E:EB:93:B6:B6:D6:97:D5:BC:84

            X509v3 Basic Constraints: critical
                CA:TRUE
            X509v3 Key Usage: 
                Certificate Sign
    Signature Algorithm: sha256WithRSAEncryption
         d1:b3:3a:90:07:5f:11:32:ba:81:60:67:f1:18:c3:7a:cd:ab:
         61:05:40:15:9e:4a:a3:6a:cf:bb:2c:90:62:6c:6c:16:3b:bf:
         10:8e:3f:8b:6c:24:a4:19:19:8b:27:29:f7:de:e9:28:44:8b:
         cb:6b:f9:1b:da:1f:9c:ae:87:85:17:c4:7b:6b:ee:f1:c2:2d:
         ab:e3:47:28:14:a8:62:e3:76:23:58:9d:e6:ce:a5:9f:e6:24:
         bd:bc:f1:b4:42:8c:df:64:bb:e2:e9:cc:f4:2d:2b:e3:b9:28:
         b2:07:6c:dd:9c:6f:a1:aa:18:bd:06:0a:c0:ec:49:15:9e:94:
         12:d4:ea:61:1b:9a:66:1f:ab:d4:92:45:43:6f:d1:72:58:f8:
         19:1d:ac:cf:8b:27:63:17:37:f5:f1:2f:40:81:bd:cc:8a:e0:
         a1:70:94:09:ca:b7:95:51:b8:6f:5f:63:28:28:28:89:3c:7f:
         37:e1:e6:d8:34:1c:e1:ee:cf:f1:3b:a2:86:8b:df:e1:81:ee:
         d8:00:59:d8:ea:ce:9a:9f:1a:cf:62:bd:45:e2:95:48:85:a7:
         75:06:92:4d:e3:8e:0f:25:18:5d:f5:4b:93:7c:49:8c:95:b1:
         69:6b:19:d8:a1:16:bb:f7:a6:44:33:77:14:3c:e2:c1:42:d4:
         88:ee:1f:62:89:41:7f:51:dc:fc:0f:8d:19:d2:1e:cb:bd:6e:
         9f:97:0a:5a:9d:99:70:c4:6d:0d:61:a9:0a:61:c2:a6:07:b8:
         53:32:09:9b:72:84:15:ec:38:db:b4:07:6a:01:b3:ee:ec:9a:
         ce:4c:b4:1c:a7:01:23:f2:cf:f9:53:e7:bb:42:9f:ef:aa:6a:
         3f:1b:15:70:ef:5a:7d:4f:c3:9b:aa:cd:42:5d:10:1e:32:4c:
         fc:55:40:83:9c:46:da:f2:b1:99:8c:27:36:6e:9f:75:74:fb:
         7b:82:96:70:0e:b8:85:fd:07:56:e9:74:47:73:92:b1:c0:74:
         4e:c6:5b:8d:64:01:6d:ea:43:dc:2e:e2:cf:59:80:29:13:de:
         ac:0c:05:8b:30:9e:cc:45:f8:23:ee:a8:00:7d:95:d0:e4:d5:
         fb:ce:14:b8:61:4d:da:e2:e8:10:0b:85:b5:8f:96:55:7e:ea:
         f9:a5:dd:66:40:f7:00:de:b7:63:9a:ea:c7:1a:b7:6b:2b:8e:
         31:1a:ef:53:6e:88:ce:8b:d5:03:f0:2c:75:4d:95:c9:e3:b6:
         5e:d4:84:44:7b:6e:f3:27:5d:ea:ba:a6:81:df:15:e6:6e:8e:
         67:0e:dd:58:72:9f:2a:07:e9:03:73:c2:bc:85:ae:15:ab:47:
         2d:37:43:11:d0:e2:dc:ce
-----BEGIN CERTIFICATE-----
MIIFbzCCA1egAwIBAgIEEkgWMjANBgkqhkiG9w0BAQsFADAmMSQwIgYDVQQDFBtD
QTFfc2hhMjU2XzQwOTZfNjU1MzdfdjNfY2EwHhcNMjEwODI0MTcwNjM0WhcNMzEw
ODIyMTcwNjM0WjAnMSUwIwYDVQQDDBxTUksxX3NoYTI1Nl80MDk2XzY1NTM3X3Yz
X2NhMIICIjANBgkqhkiG9w0BAQEFAAOCAg8AMIICCgKCAgEA79U3hjZheCoDAqpE
tyf58kgeNCdjxHdYEEW9MaxFXU00vHeHx7kRTN1w+BsdBVCNVe+3f9+VjwHLLA8k
JDDl2W8qwzL9rC04YMLp9i9H9o+JlTt1pBJIZMb1AI9IELjcq90V74619T+x+Gzz
2f255G9qHB0ugFECZLNFPetJGMv4Xqx00RPGuN+RN4YUQO31e1i31Ca667R068Wd
zOkGra5qgDznR+A6mRPpobck5H+sCajgp68TKE1ScEEmAuBXTblUXyAmxpl4+uXC
V+ZjOEbV3iiR/GACjD5tPFElqsBJf37CrK4x0aEyplatuj1yGPmpcrnwMJMeSE0o
jHqFniw+ON+Chuxjr2AFr7Sp1wXwVNsJThdeqUuEBjIVQmQOV/RqGhkVvey87ZWp
75dRPJND5h0ivs+M0fXh9lkVK3naf/WAy+qgafbxWxjIWRUb8cddz9NtTHtgMn4N
FcuZofnH4yUKPnsmjRseXN9mppgjBL3raffG1BwoShFCi7Sovs5Zez3bEaicj+yI
21KNDsm4+cIZJICEcODSveZacZBNBbkEm6cLKEY6EJhfsNlVeTlBfS/FeyDVk1Zt
tJtreuy3KPQ8v/y0FvbvPygLjbSZXHGBJYXHtEZJT4WrPnmOEMqkXN/ilEdErwmw
+C8WW0lUsNm16vj013O0FDoBWX8CAwEAAaOBozCBoDAdBgNVHQ4EFgQUMjlVzz63
1As59Jx8QO2JA1hk8HAwYQYDVR0jBFowWIAUip6rnJFEvk2EiEJAqFoyQU7PFueh
KqQoMCYxJDAiBgNVBAMUG0NBMV9zaGEyNTZfNDA5Nl82NTUzN192M19jYYIUVwih
BLKU5oelrn7rk7a21pfVvIQwDwYDVR0TAQH/BAUwAwEB/zALBgNVHQ8EBAMCAgQw
DQYJKoZIhvcNAQELBQADggIBANGzOpAHXxEyuoFgZ/EYw3rNq2EFQBWeSqNqz7ss
kGJsbBY7vxCOP4tsJKQZGYsnKffe6ShEi8tr+RvaH5yuh4UXxHtr7vHCLavjRygU
qGLjdiNYnebOpZ/mJL288bRCjN9ku+LpzPQtK+O5KLIHbN2cb6GqGL0GCsDsSRWe
lBLU6mEbmmYfq9SSRUNv0XJY+BkdrM+LJ2MXN/XxL0CBvcyK4KFwlAnKt5VRuG9f
YygoKIk8fzfh5tg0HOHuz/E7ooaL3+GB7tgAWdjqzpqfGs9ivUXilUiFp3UGkk3j
jg8lGF31S5N8SYyVsWlrGdihFrv3pkQzdxQ84sFC1IjuH2KJQX9R3PwPjRnSHsu9
bp+XClqdmXDEbQ1hqQphwqYHuFMyCZtyhBXsONu0B2oBs+7sms5MtBynASPyz/lT
57tCn++qaj8bFXDvWn1Pw5uqzUJdEB4yTPxVQIOcRtrysZmMJzZun3V0+3uClnAO
uIX9B1bpdEdzkrHAdE7GW41kAW3qQ9wu4s9ZgCkT3qwMBYswnsxF+CPuqAB9ldDk
1fvOFLhhTdri6BALhbWPllV+6vml3WZA9wDet2Oa6scat2srjjEa71NuiM6L1QPw
LHVNlcnjtl7UhER7bvMnXeq6poHfFeZujmcO3VhynyoH6QNzwryFrhWrRy03QxHQ
4tzO
-----END CERTIFICATE-----
