Certificate:
    Data:
        Version: 3 (0x2)
        Serial Number: 306714168 (0x12481638)
        Signature Algorithm: sha256WithRSAEncryption
        Issuer: CN=CA1_sha256_4096_65537_v3_ca
        Validity
            Not Before: Aug 24 17:06:39 2021 GMT
            Not After : Aug 22 17:06:39 2031 GMT
        Subject: CN=SRK3_sha256_4096_65537_v3_ca
        Subject Public Key Info:
            Public Key Algorithm: rsaEncryption
                RSA Public-Key: (4096 bit)
                Modulus:
                    00:d1:6b:d9:f1:38:43:8e:6b:9f:e5:36:60:67:4d:
                    29:92:00:32:29:fe:47:51:0e:67:4e:70:65:28:37:
                    7d:5f:2b:37:70:a7:b6:a3:96:62:de:2f:e5:d4:ac:
                    d2:bf:58:97:f8:41:2f:09:53:c8:7c:35:95:b0:7f:
                    4a:33:23:90:3b:77:92:f9:97:29:dd:e5:a1:4e:2f:
                    02:32:f8:b0:95:b6:d8:18:35:ae:7f:31:89:9e:e7:
                    e0:be:3a:03:92:37:25:93:2a:2f:a2:a5:8c:05:15:
                    c2:8b:45:c9:4f:3a:f8:28:a7:3c:08:6e:35:dd:cb:
                    67:25:38:7b:ee:c5:51:e1:1c:54:10:e6:f1:be:c3:
                    b0:4c:dd:43:c6:6f:30:8a:95:bf:ac:ff:13:c0:18:
                    ed:90:77:ff:74:0c:f9:53:55:1e:fe:ce:1d:f2:36:
                    75:3d:e4:63:a2:b0:bc:ce:c9:bc:93:70:3c:a2:f7:
                    c6:2b:92:be:35:5d:cf:06:4f:77:72:12:67:72:af:
                    92:af:a2:62:82:13:ac:86:5a:94:07:0f:1b:07:cd:
                    d4:44:2c:07:94:22:10:2c:c8:4d:c7:8c:dd:c4:bf:
                    a6:09:07:10:e3:dc:91:af:0c:bb:14:6d:ac:d5:ec:
                    98:98:c9:ee:75:3b:c6:f5:71:23:a8:6e:d1:62:e2:
                    4e:9d:64:0b:e2:13:1c:be:0e:fb:02:8f:40:ab:5b:
                    61:39:4c:df:7c:a7:96:f6:db:15:4c:62:c4:d2:dc:
                    db:cb:67:3c:f2:21:15:b5:12:fd:c9:72:a4:04:d0:
                    cd:16:5e:58:fd:f9:12:67:0f:88:02:8f:23:dc:59:
                    9c:03:a8:95:52:b4:c4:28:a2:54:08:6d:08:3f:51:
                    e0:37:58:1c:0e:de:32:53:2b:e1:22:1e:13:50:15:
                    00:5a:ff:77:d0:c2:5c:f3:34:b2:32:1e:74:fd:9c:
                    2c:87:ce:6c:42:b7:39:a8:dd:91:11:71:63:6d:90:
                    a1:af:22:db:a1:7b:0e:8f:35:17:37:14:0b:af:44:
                    2e:b3:59:87:f7:78:de:63:dd:16:04:12:25:a4:83:
                    b8:ef:ac:ad:a0:7e:89:83:b7:2d:d2:49:f6:af:d4:
                    57:ce:7c:f0:d8:b5:b8:d7:85:51:1e:c0:cc:d0:a3:
                    f7:bc:7b:24:cd:f3:f6:c7:57:bb:3d:3e:8f:f3:96:
                    df:3e:10:a7:60:e5:1b:ce:39:61:3b:ec:92:c3:c4:
                    8e:08:d1:88:81:c5:fd:71:fc:c5:1f:16:78:6d:ca:
                    34:b8:83:7c:60:e9:a5:94:5f:9c:20:88:bc:61:3f:
                    fd:62:9f:16:52:41:2f:f2:86:9b:aa:f7:ba:39:0d:
                    f2:3f:bf
                Exponent: 65537 (0x10001)
        X509v3 extensions:
            X509v3 Subject Key Identifier: 
                86:49:2D:3A:2A:7B:9E:5F:AA:EB:B8:C0:DA:D9:07:99:00:F6:D2:D3
            X509v3 Authority Key Identifier: 
                keyid:8A:9E:AB:9C:91:44:BE:4D:84:88:42:40:A8:5A:32:41:4E:CF:16:E7
                DirName:/CN=CA1_sha256_4096_65537_v3_ca
                serial:57:08:A1:04:B2:94:E6:87:A5:AE:7E:EB:93:B6:B6:D6:97:D5:BC:84

            X509v3 Basic Constraints: critical
                CA:TRUE
            X509v3 Key Usage: 
                Certificate Sign
    Signature Algorithm: sha256WithRSAEncryption
         36:89:9a:fb:bb:7c:13:67:9a:1e:0a:36:57:4a:67:71:d0:66:
         53:05:e7:67:b0:00:36:29:28:39:35:ec:e1:d7:50:9d:b0:18:
         8e:b1:71:26:22:39:1d:46:e2:46:03:db:fd:b4:54:0d:7a:27:
         f3:cb:47:9d:6c:5f:6b:c0:ac:77:9e:cd:16:4d:36:ec:2b:cf:
         c0:06:8b:67:42:9b:bc:64:a0:f3:a8:ec:52:b5:44:a5:f0:ec:
         b0:62:c3:3d:42:74:f3:44:73:dc:3f:75:42:22:6c:50:a6:47:
         5a:55:4c:a6:a6:f7:05:fa:48:9a:fb:95:9d:dd:b9:bd:e8:bc:
         ff:45:be:be:46:00:9d:7d:93:bd:17:fc:cc:13:55:9f:84:c0:
         6d:6e:98:5c:06:a2:6e:c8:49:6a:d1:7d:d5:4e:c7:0f:6e:40:
         8d:08:4b:73:c3:0a:c4:71:c8:91:38:66:b7:ec:b3:b5:20:bb:
         c2:14:30:0c:08:68:0d:83:11:44:de:f3:48:d9:08:4c:76:87:
         cb:ef:a9:29:e1:34:d7:05:80:09:d3:ca:07:63:4a:a8:13:31:
         a8:01:18:db:a5:9a:d6:f7:09:26:88:54:9f:3d:bf:46:59:d9:
         9b:0f:cd:76:7c:fe:af:79:41:14:22:67:39:b1:ae:61:fc:f5:
         dd:71:47:7f:35:55:02:87:3a:3f:a4:fc:64:2e:93:b8:33:64:
         89:95:36:24:b3:cd:81:5b:2b:55:af:c3:59:cc:5b:e6:26:2b:
         d1:2a:23:45:0d:d5:0e:fe:91:92:67:20:db:c8:01:b0:70:a0:
         b1:da:2d:ca:b8:78:fd:8d:b8:49:24:ca:c8:ab:17:6a:38:1f:
         a0:6c:ee:48:84:db:73:94:e1:13:4f:1d:10:4e:83:dc:54:2f:
         14:09:4f:8b:bb:85:44:1d:14:99:c5:58:04:ca:ee:2c:0e:cf:
         dc:7d:2b:fa:88:d8:c3:3d:55:02:0e:55:21:35:6b:07:65:e0:
         d4:8b:a0:0f:17:be:c0:33:38:5a:66:1f:16:23:9f:9e:22:43:
         61:9d:9f:a1:39:2d:95:e9:2d:1e:f1:e6:ce:ea:bf:87:10:20:
         34:dd:17:4f:20:57:7d:66:54:19:60:8c:fe:d3:56:79:f3:ad:
         f5:a0:2c:fb:07:37:c7:b0:c8:37:97:d8:65:67:71:90:3d:e7:
         35:51:80:2d:62:3c:2d:83:4a:2c:86:44:ac:92:69:5b:b9:ef:
         c5:45:fb:a3:11:98:da:86:a8:11:e5:bb:e2:c1:f9:9c:c2:99:
         d2:72:ec:91:66:72:2c:a1:b5:08:bd:6e:b8:49:57:62:0d:0f:
         54:eb:28:d4:5a:52:07:85
-----BEGIN CERTIFICATE-----
MIIFbzCCA1egAwIBAgIEEkgWODANBgkqhkiG9w0BAQsFADAmMSQwIgYDVQQDFBtD
QTFfc2hhMjU2XzQwOTZfNjU1MzdfdjNfY2EwHhcNMjEwODI0MTcwNjM5WhcNMzEw
ODIyMTcwNjM5WjAnMSUwIwYDVQQDDBxTUkszX3NoYTI1Nl80MDk2XzY1NTM3X3Yz
X2NhMIICIjANBgkqhkiG9w0BAQEFAAOCAg8AMIICCgKCAgEA0WvZ8ThDjmuf5TZg
Z00pkgAyKf5HUQ5nTnBlKDd9Xys3cKe2o5Zi3i/l1KzSv1iX+EEvCVPIfDWVsH9K
MyOQO3eS+Zcp3eWhTi8CMviwlbbYGDWufzGJnufgvjoDkjclkyovoqWMBRXCi0XJ
Tzr4KKc8CG413ctnJTh77sVR4RxUEObxvsOwTN1Dxm8wipW/rP8TwBjtkHf/dAz5
U1Ue/s4d8jZ1PeRjorC8zsm8k3A8ovfGK5K+NV3PBk93chJncq+Sr6JighOshlqU
Bw8bB83URCwHlCIQLMhNx4zdxL+mCQcQ49yRrwy7FG2s1eyYmMnudTvG9XEjqG7R
YuJOnWQL4hMcvg77Ao9Aq1thOUzffKeW9tsVTGLE0tzby2c88iEVtRL9yXKkBNDN
Fl5Y/fkSZw+IAo8j3FmcA6iVUrTEKKJUCG0IP1HgN1gcDt4yUyvhIh4TUBUAWv93
0MJc8zSyMh50/Zwsh85sQrc5qN2REXFjbZChryLboXsOjzUXNxQLr0Qus1mH93je
Y90WBBIlpIO476ytoH6Jg7ct0kn2r9RXznzw2LW414VRHsDM0KP3vHskzfP2x1e7
PT6P85bfPhCnYOUbzjlhO+ySw8SOCNGIgcX9cfzFHxZ4bco0uIN8YOmllF+cIIi8
YT/9Yp8WUkEv8oabqve6OQ3yP78CAwEAAaOBozCBoDAdBgNVHQ4EFgQUhkktOip7
nl+q67jA2tkHmQD20tMwYQYDVR0jBFowWIAUip6rnJFEvk2EiEJAqFoyQU7PFueh
KqQoMCYxJDAiBgNVBAMUG0NBMV9zaGEyNTZfNDA5Nl82NTUzN192M19jYYIUVwih
BLKU5oelrn7rk7a21pfVvIQwDwYDVR0TAQH/BAUwAwEB/zALBgNVHQ8EBAMCAgQw
DQYJKoZIhvcNAQELBQADggIBADaJmvu7fBNnmh4KNldKZ3HQZlMF52ewADYpKDk1
7OHXUJ2wGI6xcSYiOR1G4kYD2/20VA16J/PLR51sX2vArHeezRZNNuwrz8AGi2dC
m7xkoPOo7FK1RKXw7LBiwz1CdPNEc9w/dUIibFCmR1pVTKam9wX6SJr7lZ3dub3o
vP9Fvr5GAJ19k70X/MwTVZ+EwG1umFwGom7ISWrRfdVOxw9uQI0IS3PDCsRxyJE4
Zrfss7Ugu8IUMAwIaA2DEUTe80jZCEx2h8vvqSnhNNcFgAnTygdjSqgTMagBGNul
mtb3CSaIVJ89v0ZZ2ZsPzXZ8/q95QRQiZzmxrmH89d1xR381VQKHOj+k/GQuk7gz
ZImVNiSzzYFbK1Wvw1nMW+YmK9EqI0UN1Q7+kZJnINvIAbBwoLHaLcq4eP2NuEkk
ysirF2o4H6Bs7kiE23OU4RNPHRBOg9xULxQJT4u7hUQdFJnFWATK7iwOz9x9K/qI
2MM9VQIOVSE1awdl4NSLoA8XvsAzOFpmHxYjn54iQ2Gdn6E5LZXpLR7x5s7qv4cQ
IDTdF08gV31mVBlgjP7TVnnzrfWgLPsHN8ewyDeX2GVncZA95zVRgC1iPC2DSiyG
RKySaVu578VF+6MRmNqGqBHlu+LB+ZzCmdJy7JFmciyhtQi9brhJV2IND1TrKNRa
UgeF
-----END CERTIFICATE-----
