Certificate:
    Data:
        Version: 3 (0x2)
        Serial Number: 306714171 (0x1248163b)
        Signature Algorithm: sha256WithRSAEncryption
        Issuer: CN=CA1_sha256_4096_65537_v3_ca
        Validity
            Not Before: Aug 24 17:06:41 2021 GMT
            Not After : Aug 22 17:06:41 2031 GMT
        Subject: CN=SRK4_sha256_4096_65537_v3_ca
        Subject Public Key Info:
            Public Key Algorithm: rsaEncryption
                RSA Public-Key: (4096 bit)
                Modulus:
                    00:bc:db:f1:f9:c8:d0:af:53:9d:15:d7:98:45:e9:
                    96:96:e2:90:a2:11:06:d0:0a:e4:86:20:1c:1f:71:
                    a4:05:95:d3:79:55:1a:fd:21:6c:8f:25:d9:5a:82:
                    2d:99:51:d8:1a:f9:aa:22:56:68:b0:f8:9f:03:cd:
                    c9:09:c0:aa:e4:b8:c2:d7:d9:42:97:88:73:96:be:
                    6f:fb:c2:56:e1:cf:fb:7a:28:c0:71:73:3c:e1:4a:
                    0c:9d:2b:11:f4:0d:80:12:b0:eb:cb:23:11:7b:3b:
                    a0:7f:b9:0e:cb:d7:78:8e:2c:76:88:3d:d0:92:57:
                    16:9a:b6:bb:2f:a9:5d:f5:3b:0c:8f:38:c1:2e:ab:
                    7b:39:b7:4d:6f:5c:c4:72:04:00:c4:64:5e:79:81:
                    cf:8d:8e:16:c1:63:f5:3e:fd:d1:ce:be:b4:b9:5d:
                    48:5f:3d:46:62:a5:e8:93:ba:d4:6b:68:6e:f7:f7:
                    70:51:90:c8:41:7f:fb:14:16:11:9c:25:35:e4:5e:
                    c2:96:ab:a6:14:11:c5:f8:bc:3e:a9:ca:74:45:e2:
                    2d:aa:22:76:e8:33:26:8d:5f:ea:06:24:69:6d:18:
                    70:ee:50:0f:92:67:ad:cf:65:53:29:57:9a:6f:22:
                    6d:6f:89:55:7f:b3:9e:15:c5:37:27:ae:0b:57:64:
                    04:d7:36:e0:87:3b:ec:f9:bd:53:c6:cc:c9:5b:df:
                    2c:1f:cb:d3:fd:4d:2c:8d:7d:f2:fb:65:a0:f1:0b:
                    dd:7d:bc:d3:b8:2e:e6:11:26:b9:0e:f2:2b:b8:1f:
                    40:92:9b:d6:d1:aa:d1:f1:9a:b8:f6:44:19:69:90:
                    9e:6a:4d:2d:b7:b8:85:d6:3d:fe:d2:c5:a5:f7:0c:
                    a3:3b:fe:03:3b:92:cf:37:37:97:c6:01:36:0f:6c:
                    f8:1c:7b:3b:33:f0:23:6b:a0:e8:72:aa:c0:b5:06:
                    3a:b5:0e:8d:db:50:44:a1:4f:9c:d3:cf:bf:cb:49:
                    45:b4:37:c5:db:4f:5c:89:61:13:82:f4:71:2a:79:
                    b2:38:f4:41:92:a7:76:2f:77:22:2e:c4:22:a2:65:
                    64:42:82:e4:76:f8:8b:e5:95:e2:a9:44:1b:e5:87:
                    ba:49:0e:94:10:0f:b1:18:0a:60:d7:35:e6:f5:01:
                    28:c4:cc:7f:de:fa:c9:41:27:1c:a4:40:f5:f6:6d:
                    0b:39:29:c7:6e:9a:b5:f6:67:d9:c9:9c:ec:e2:c5:
                    cd:ff:32:5f:cc:61:81:b7:32:27:53:87:6d:01:b2:
                    26:f4:66:8e:77:de:fb:54:33:9e:82:44:f1:06:fc:
                    e8:02:97:52:4a:a6:c8:05:54:b0:16:49:f2:81:59:
                    68:77:2b
                Exponent: 65537 (0x10001)
        X509v3 extensions:
            X509v3 Subject Key Identifier: 
                72:5A:08:D5:E9:36:72:5D:A6:29:F8:71:D3:C1:8E:37:F1:2E:3B:A2
            X509v3 Authority Key Identifier: 
                keyid:8A:9E:AB:9C:91:44:BE:4D:84:88:42:40:A8:5A:32:41:4E:CF:16:E7
                DirName:/CN=CA1_sha256_4096_65537_v3_ca
                serial:57:08:A1:04:B2:94:E6:87:A5:AE:7E:EB:93:B6:B6:D6:97:D5:BC:84

            X509v3 Basic Constraints: critical
                CA:TRUE
            X509v3 Key Usage: 
                Certificate Sign
    Signature Algorithm: sha256WithRSAEncryption
         b8:ff:eb:17:b0:96:3b:04:0c:a4:00:8d:43:09:6b:c1:69:c0:
         de:4a:05:9d:e2:87:81:47:82:54:a9:f6:74:4e:eb:12:4c:cf:
         d9:9f:da:dc:ba:2e:15:99:d6:7d:a7:00:27:a6:9c:1d:df:ed:
         90:7e:53:28:39:a6:19:fb:72:29:cc:dc:98:56:7f:6c:7a:e0:
         43:f9:2a:ac:c3:6b:c9:28:b1:63:4c:10:7f:b7:b1:4d:3a:c9:
         fd:19:09:ec:40:8f:c6:99:d5:a7:1c:f4:97:41:c8:1e:01:e0:
         42:4d:62:44:74:8c:44:ff:31:f5:65:9c:da:b0:22:b9:01:8e:
         dd:72:4c:e1:bf:49:d1:de:c7:e5:2e:99:34:1b:4d:35:ce:24:
         e2:7b:d0:19:a6:96:ad:f0:c4:f5:05:ee:1b:00:cb:42:b3:72:
         cc:b1:9b:cf:b8:c7:95:44:f2:bc:ab:21:58:bb:d3:68:21:db:
         17:cd:36:3d:ba:17:b6:cf:29:76:f1:bf:9b:35:de:d2:2b:63:
         4e:b5:b7:25:cc:f5:1e:d0:f3:91:62:ee:1b:04:55:3e:5f:35:
         ce:af:91:0d:84:e8:10:38:f2:98:c4:41:04:66:32:b1:c1:3a:
         f6:09:68:be:68:97:9a:9c:12:34:a8:0d:d3:b9:b2:0d:85:a1:
         19:26:c8:a5:04:e8:00:66:ba:26:19:ea:e2:18:a9:f8:f6:21:
         35:b3:85:ba:0b:81:2c:be:a6:76:3d:7d:67:83:c0:7e:ad:7b:
         97:d5:e2:44:a6:ba:d9:a1:40:f4:e6:16:13:e4:3b:da:81:15:
         3c:d4:aa:6f:82:54:20:62:0a:01:40:74:73:42:3e:93:bc:60:
         a9:60:63:73:3f:2e:6b:40:03:90:3e:bd:dc:60:60:cf:d9:0a:
         15:49:97:1f:75:4a:94:d0:d2:3f:9c:d7:41:79:e2:49:76:ef:
         92:f3:eb:69:1f:fb:ce:6e:78:ef:32:6e:b0:66:7d:ad:ff:83:
         20:e7:ff:e1:36:2f:c1:f4:a7:a8:62:2b:49:42:c7:3f:64:1b:
         be:70:be:4e:90:46:9e:da:6c:1a:5e:bd:40:de:e6:45:11:2a:
         70:60:c2:04:79:67:73:a2:0b:8f:92:bd:e2:85:e7:7a:14:b9:
         31:43:a3:9f:72:a0:cb:41:09:15:13:7f:bc:31:d3:7e:33:d7:
         86:d3:5b:be:7f:16:86:59:60:b5:06:88:f4:c1:d5:6f:94:03:
         70:81:12:6e:2a:5e:b4:9a:93:01:98:6b:70:2a:65:52:28:41:
         13:ba:26:fe:5d:95:8d:4b:60:16:28:9d:a2:63:c7:3a:b6:a6:
         a6:74:2c:98:7b:3c:90:03
-----BEGIN CERTIFICATE-----
MIIFbzCCA1egAwIBAgIEEkgWOzANBgkqhkiG9w0BAQsFADAmMSQwIgYDVQQDFBtD
QTFfc2hhMjU2XzQwOTZfNjU1MzdfdjNfY2EwHhcNMjEwODI0MTcwNjQxWhcNMzEw
ODIyMTcwNjQxWjAnMSUwIwYDVQQDDBxTUks0X3NoYTI1Nl80MDk2XzY1NTM3X3Yz
X2NhMIICIjANBgkqhkiG9w0BAQEFAAOCAg8AMIICCgKCAgEAvNvx+cjQr1OdFdeY
RemWluKQohEG0ArkhiAcH3GkBZXTeVUa/SFsjyXZWoItmVHYGvmqIlZosPifA83J
CcCq5LjC19lCl4hzlr5v+8JW4c/7eijAcXM84UoMnSsR9A2AErDryyMRezugf7kO
y9d4jix2iD3QklcWmra7L6ld9TsMjzjBLqt7ObdNb1zEcgQAxGReeYHPjY4WwWP1
Pv3Rzr60uV1IXz1GYqXok7rUa2hu9/dwUZDIQX/7FBYRnCU15F7ClqumFBHF+Lw+
qcp0ReItqiJ26DMmjV/qBiRpbRhw7lAPkmetz2VTKVeabyJtb4lVf7OeFcU3J64L
V2QE1zbghzvs+b1TxszJW98sH8vT/U0sjX3y+2Wg8QvdfbzTuC7mESa5DvIruB9A
kpvW0arR8Zq49kQZaZCeak0tt7iF1j3+0sWl9wyjO/4DO5LPNzeXxgE2D2z4HHs7
M/Aja6DocqrAtQY6tQ6N21BEoU+c08+/y0lFtDfF209ciWETgvRxKnmyOPRBkqd2
L3ciLsQiomVkQoLkdviL5ZXiqUQb5Ye6SQ6UEA+xGApg1zXm9QEoxMx/3vrJQScc
pED19m0LOSnHbpq19mfZyZzs4sXN/zJfzGGBtzInU4dtAbIm9GaOd977VDOegkTx
BvzoApdSSqbIBVSwFknygVlodysCAwEAAaOBozCBoDAdBgNVHQ4EFgQUcloI1ek2
cl2mKfhx08GON/EuO6IwYQYDVR0jBFowWIAUip6rnJFEvk2EiEJAqFoyQU7PFueh
KqQoMCYxJDAiBgNVBAMUG0NBMV9zaGEyNTZfNDA5Nl82NTUzN192M19jYYIUVwih
BLKU5oelrn7rk7a21pfVvIQwDwYDVR0TAQH/BAUwAwEB/zALBgNVHQ8EBAMCAgQw
DQYJKoZIhvcNAQELBQADggIBALj/6xewljsEDKQAjUMJa8FpwN5KBZ3ih4FHglSp
9nRO6xJMz9mf2ty6LhWZ1n2nACemnB3f7ZB+Uyg5phn7cinM3JhWf2x64EP5KqzD
a8kosWNMEH+3sU06yf0ZCexAj8aZ1acc9JdByB4B4EJNYkR0jET/MfVlnNqwIrkB
jt1yTOG/SdHex+UumTQbTTXOJOJ70Bmmlq3wxPUF7hsAy0Kzcsyxm8+4x5VE8ryr
IVi702gh2xfNNj26F7bPKXbxv5s13tIrY061tyXM9R7Q85Fi7hsEVT5fNc6vkQ2E
6BA48pjEQQRmMrHBOvYJaL5ol5qcEjSoDdO5sg2FoRkmyKUE6ABmuiYZ6uIYqfj2
ITWzhboLgSy+pnY9fWeDwH6te5fV4kSmutmhQPTmFhPkO9qBFTzUqm+CVCBiCgFA
dHNCPpO8YKlgY3M/LmtAA5A+vdxgYM/ZChVJlx91SpTQ0j+c10F54kl275Lz62kf
+85ueO8ybrBmfa3/gyDn/+E2L8H0p6hiK0lCxz9kG75wvk6QRp7abBpevUDe5kUR
KnBgwgR5Z3OiC4+SveKF53oUuTFDo59yoMtBCRUTf7wx034z14bTW75/FoZZYLUG
iPTB1W+UA3CBEm4qXrSakwGYa3AqZVIoQRO6Jv5dlY1LYBYonaJjxzq2pqZ0LJh7
PJAD
-----END CERTIFICATE-----
